
hello:     file format elf64-littleriscv


Disassembly of section .text:

00000000000100b0 <register_fini>:
   100b0:	00000793          	li	a5,0
   100b4:	c791                	beqz	a5,100c0 <register_fini+0x10>
   100b6:	6549                	lui	a0,0x12
   100b8:	48250513          	addi	a0,a0,1154 # 12482 <__libc_fini_array>
   100bc:	7250106f          	j	11fe0 <atexit>
   100c0:	8082                	ret

00000000000100c2 <_start>:
   100c2:	0000f197          	auipc	gp,0xf
   100c6:	abe18193          	addi	gp,gp,-1346 # 1eb80 <__global_pointer$>
   100ca:	77018513          	addi	a0,gp,1904 # 1f2f0 <__malloc_max_total_mem>
   100ce:	0000f617          	auipc	a2,0xf
   100d2:	2b260613          	addi	a2,a2,690 # 1f380 <__BSS_END__>
   100d6:	8e09                	sub	a2,a2,a0
   100d8:	4581                	li	a1,0
   100da:	118000ef          	jal	ra,101f2 <memset>
   100de:	00002517          	auipc	a0,0x2
   100e2:	f0250513          	addi	a0,a0,-254 # 11fe0 <atexit>
   100e6:	c519                	beqz	a0,100f4 <_start+0x32>
   100e8:	00002517          	auipc	a0,0x2
   100ec:	39a50513          	addi	a0,a0,922 # 12482 <__libc_fini_array>
   100f0:	6f1010ef          	jal	ra,11fe0 <atexit>
   100f4:	094000ef          	jal	ra,10188 <__libc_init_array>
   100f8:	4502                	lw	a0,0(sp)
   100fa:	002c                	addi	a1,sp,8
   100fc:	4601                	li	a2,0
   100fe:	04e000ef          	jal	ra,1014c <main>
   10102:	a0a5                	j	1016a <exit>

0000000000010104 <__do_global_dtors_aux>:
   10104:	1141                	addi	sp,sp,-16
   10106:	e022                	sd	s0,0(sp)
   10108:	7a01c783          	lbu	a5,1952(gp) # 1f320 <completed.1>
   1010c:	e406                	sd	ra,8(sp)
   1010e:	ef91                	bnez	a5,1012a <__do_global_dtors_aux+0x26>
   10110:	00000793          	li	a5,0
   10114:	cb81                	beqz	a5,10124 <__do_global_dtors_aux+0x20>
   10116:	6579                	lui	a0,0x1e
   10118:	17850513          	addi	a0,a0,376 # 1e178 <__FRAME_END__>
   1011c:	00000097          	auipc	ra,0x0
   10120:	000000e7          	jalr	zero # 0 <register_fini-0x100b0>
   10124:	4785                	li	a5,1
   10126:	7af18023          	sb	a5,1952(gp) # 1f320 <completed.1>
   1012a:	60a2                	ld	ra,8(sp)
   1012c:	6402                	ld	s0,0(sp)
   1012e:	0141                	addi	sp,sp,16
   10130:	8082                	ret

0000000000010132 <frame_dummy>:
   10132:	00000793          	li	a5,0
   10136:	cb91                	beqz	a5,1014a <frame_dummy+0x18>
   10138:	6579                	lui	a0,0x1e
   1013a:	7a818593          	addi	a1,gp,1960 # 1f328 <object.0>
   1013e:	17850513          	addi	a0,a0,376 # 1e178 <__FRAME_END__>
   10142:	00000317          	auipc	t1,0x0
   10146:	00000067          	jr	zero # 0 <register_fini-0x100b0>
   1014a:	8082                	ret

000000000001014c <main>:
   1014c:	1141                	addi	sp,sp,-16
   1014e:	e406                	sd	ra,8(sp)
   10150:	e022                	sd	s0,0(sp)
   10152:	0800                	addi	s0,sp,16
   10154:	67f1                	lui	a5,0x1c
   10156:	25078513          	addi	a0,a5,592 # 1c250 <__clzdi2+0x38>
   1015a:	164000ef          	jal	ra,102be <printf>
   1015e:	4781                	li	a5,0
   10160:	853e                	mv	a0,a5
   10162:	60a2                	ld	ra,8(sp)
   10164:	6402                	ld	s0,0(sp)
   10166:	0141                	addi	sp,sp,16
   10168:	8082                	ret

000000000001016a <exit>:
   1016a:	1141                	addi	sp,sp,-16
   1016c:	4581                	li	a1,0
   1016e:	e022                	sd	s0,0(sp)
   10170:	e406                	sd	ra,8(sp)
   10172:	842a                	mv	s0,a0
   10174:	5ab010ef          	jal	ra,11f1e <__call_exitprocs>
   10178:	7481b503          	ld	a0,1864(gp) # 1f2c8 <_global_impure_ptr>
   1017c:	6d3c                	ld	a5,88(a0)
   1017e:	c391                	beqz	a5,10182 <exit+0x18>
   10180:	9782                	jalr	a5
   10182:	8522                	mv	a0,s0
   10184:	2590a0ef          	jal	ra,1abdc <_exit>

0000000000010188 <__libc_init_array>:
   10188:	1101                	addi	sp,sp,-32
   1018a:	e822                	sd	s0,16(sp)
   1018c:	e04a                	sd	s2,0(sp)
   1018e:	6479                	lui	s0,0x1e
   10190:	6979                	lui	s2,0x1e
   10192:	17c40793          	addi	a5,s0,380 # 1e17c <__preinit_array_end>
   10196:	17c90913          	addi	s2,s2,380 # 1e17c <__preinit_array_end>
   1019a:	40f90933          	sub	s2,s2,a5
   1019e:	ec06                	sd	ra,24(sp)
   101a0:	e426                	sd	s1,8(sp)
   101a2:	40395913          	srai	s2,s2,0x3
   101a6:	00090b63          	beqz	s2,101bc <__libc_init_array+0x34>
   101aa:	17c40413          	addi	s0,s0,380
   101ae:	4481                	li	s1,0
   101b0:	601c                	ld	a5,0(s0)
   101b2:	0485                	addi	s1,s1,1
   101b4:	0421                	addi	s0,s0,8
   101b6:	9782                	jalr	a5
   101b8:	fe991ce3          	bne	s2,s1,101b0 <__libc_init_array+0x28>
   101bc:	6479                	lui	s0,0x1e
   101be:	6979                	lui	s2,0x1e
   101c0:	18040793          	addi	a5,s0,384 # 1e180 <__init_array_start>
   101c4:	19090913          	addi	s2,s2,400 # 1e190 <__do_global_dtors_aux_fini_array_entry>
   101c8:	40f90933          	sub	s2,s2,a5
   101cc:	40395913          	srai	s2,s2,0x3
   101d0:	00090b63          	beqz	s2,101e6 <__libc_init_array+0x5e>
   101d4:	18040413          	addi	s0,s0,384
   101d8:	4481                	li	s1,0
   101da:	601c                	ld	a5,0(s0)
   101dc:	0485                	addi	s1,s1,1
   101de:	0421                	addi	s0,s0,8
   101e0:	9782                	jalr	a5
   101e2:	fe991ce3          	bne	s2,s1,101da <__libc_init_array+0x52>
   101e6:	60e2                	ld	ra,24(sp)
   101e8:	6442                	ld	s0,16(sp)
   101ea:	64a2                	ld	s1,8(sp)
   101ec:	6902                	ld	s2,0(sp)
   101ee:	6105                	addi	sp,sp,32
   101f0:	8082                	ret

00000000000101f2 <memset>:
   101f2:	433d                	li	t1,15
   101f4:	872a                	mv	a4,a0
   101f6:	02c37163          	bgeu	t1,a2,10218 <memset+0x26>
   101fa:	00f77793          	andi	a5,a4,15
   101fe:	e3c1                	bnez	a5,1027e <memset+0x8c>
   10200:	e1bd                	bnez	a1,10266 <memset+0x74>
   10202:	ff067693          	andi	a3,a2,-16
   10206:	8a3d                	andi	a2,a2,15
   10208:	96ba                	add	a3,a3,a4
   1020a:	e30c                	sd	a1,0(a4)
   1020c:	e70c                	sd	a1,8(a4)
   1020e:	0741                	addi	a4,a4,16
   10210:	fed76de3          	bltu	a4,a3,1020a <memset+0x18>
   10214:	e211                	bnez	a2,10218 <memset+0x26>
   10216:	8082                	ret
   10218:	40c306b3          	sub	a3,t1,a2
   1021c:	068a                	slli	a3,a3,0x2
   1021e:	00000297          	auipc	t0,0x0
   10222:	9696                	add	a3,a3,t0
   10224:	00a68067          	jr	10(a3)
   10228:	00b70723          	sb	a1,14(a4)
   1022c:	00b706a3          	sb	a1,13(a4)
   10230:	00b70623          	sb	a1,12(a4)
   10234:	00b705a3          	sb	a1,11(a4)
   10238:	00b70523          	sb	a1,10(a4)
   1023c:	00b704a3          	sb	a1,9(a4)
   10240:	00b70423          	sb	a1,8(a4)
   10244:	00b703a3          	sb	a1,7(a4)
   10248:	00b70323          	sb	a1,6(a4)
   1024c:	00b702a3          	sb	a1,5(a4)
   10250:	00b70223          	sb	a1,4(a4)
   10254:	00b701a3          	sb	a1,3(a4)
   10258:	00b70123          	sb	a1,2(a4)
   1025c:	00b700a3          	sb	a1,1(a4)
   10260:	00b70023          	sb	a1,0(a4)
   10264:	8082                	ret
   10266:	0ff5f593          	zext.b	a1,a1
   1026a:	00859693          	slli	a3,a1,0x8
   1026e:	8dd5                	or	a1,a1,a3
   10270:	01059693          	slli	a3,a1,0x10
   10274:	8dd5                	or	a1,a1,a3
   10276:	02059693          	slli	a3,a1,0x20
   1027a:	8dd5                	or	a1,a1,a3
   1027c:	b759                	j	10202 <memset+0x10>
   1027e:	00279693          	slli	a3,a5,0x2
   10282:	00000297          	auipc	t0,0x0
   10286:	9696                	add	a3,a3,t0
   10288:	8286                	mv	t0,ra
   1028a:	fa2680e7          	jalr	-94(a3)
   1028e:	8096                	mv	ra,t0
   10290:	17c1                	addi	a5,a5,-16
   10292:	8f1d                	sub	a4,a4,a5
   10294:	963e                	add	a2,a2,a5
   10296:	f8c371e3          	bgeu	t1,a2,10218 <memset+0x26>
   1029a:	b79d                	j	10200 <memset+0xe>

000000000001029c <_printf_r>:
   1029c:	715d                	addi	sp,sp,-80
   1029e:	f032                	sd	a2,32(sp)
   102a0:	f436                	sd	a3,40(sp)
   102a2:	f83a                	sd	a4,48(sp)
   102a4:	fc3e                	sd	a5,56(sp)
   102a6:	e0c2                	sd	a6,64(sp)
   102a8:	e4c6                	sd	a7,72(sp)
   102aa:	862e                	mv	a2,a1
   102ac:	690c                	ld	a1,16(a0)
   102ae:	1014                	addi	a3,sp,32
   102b0:	ec06                	sd	ra,24(sp)
   102b2:	e436                	sd	a3,8(sp)
   102b4:	036000ef          	jal	ra,102ea <_vfprintf_r>
   102b8:	60e2                	ld	ra,24(sp)
   102ba:	6161                	addi	sp,sp,80
   102bc:	8082                	ret

00000000000102be <printf>:
   102be:	7581b303          	ld	t1,1880(gp) # 1f2d8 <_impure_ptr>
   102c2:	711d                	addi	sp,sp,-96
   102c4:	f832                	sd	a2,48(sp)
   102c6:	fc36                	sd	a3,56(sp)
   102c8:	f42e                	sd	a1,40(sp)
   102ca:	e0ba                	sd	a4,64(sp)
   102cc:	e4be                	sd	a5,72(sp)
   102ce:	e8c2                	sd	a6,80(sp)
   102d0:	ecc6                	sd	a7,88(sp)
   102d2:	01033583          	ld	a1,16(t1) # 10152 <main+0x6>
   102d6:	1034                	addi	a3,sp,40
   102d8:	862a                	mv	a2,a0
   102da:	851a                	mv	a0,t1
   102dc:	ec06                	sd	ra,24(sp)
   102de:	e436                	sd	a3,8(sp)
   102e0:	00a000ef          	jal	ra,102ea <_vfprintf_r>
   102e4:	60e2                	ld	ra,24(sp)
   102e6:	6125                	addi	sp,sp,96
   102e8:	8082                	ret

00000000000102ea <_vfprintf_r>:
   102ea:	d8010113          	addi	sp,sp,-640
   102ee:	26113c23          	sd	ra,632(sp)
   102f2:	27213023          	sd	s2,608(sp)
   102f6:	25413823          	sd	s4,592(sp)
   102fa:	23913423          	sd	s9,552(sp)
   102fe:	892e                	mv	s2,a1
   10300:	8cb2                	mv	s9,a2
   10302:	e836                	sd	a3,16(sp)
   10304:	26813823          	sd	s0,624(sp)
   10308:	26913423          	sd	s1,616(sp)
   1030c:	25313c23          	sd	s3,600(sp)
   10310:	25513423          	sd	s5,584(sp)
   10314:	25613023          	sd	s6,576(sp)
   10318:	23713c23          	sd	s7,568(sp)
   1031c:	23813823          	sd	s8,560(sp)
   10320:	23a13023          	sd	s10,544(sp)
   10324:	21b13c23          	sd	s11,536(sp)
   10328:	8a2a                	mv	s4,a0
   1032a:	5e4040ef          	jal	ra,1490e <_localeconv_r>
   1032e:	611c                	ld	a5,0(a0)
   10330:	853e                	mv	a0,a5
   10332:	f8be                	sd	a5,112(sp)
   10334:	585050ef          	jal	ra,160b8 <strlen>
   10338:	f4aa                	sd	a0,104(sp)
   1033a:	e202                	sd	zero,256(sp)
   1033c:	e602                	sd	zero,264(sp)
   1033e:	000a0663          	beqz	s4,1034a <_vfprintf_r+0x60>
   10342:	050a2783          	lw	a5,80(s4)
   10346:	5a078863          	beqz	a5,108f6 <_vfprintf_r+0x60c>
   1034a:	01091703          	lh	a4,16(s2)
   1034e:	6689                	lui	a3,0x2
   10350:	03071793          	slli	a5,a4,0x30
   10354:	93c1                	srli	a5,a5,0x30
   10356:	00d7f633          	and	a2,a5,a3
   1035a:	e215                	bnez	a2,1037e <_vfprintf_r+0x94>
   1035c:	0ac92603          	lw	a2,172(s2)
   10360:	00d767b3          	or	a5,a4,a3
   10364:	0107979b          	slliw	a5,a5,0x10
   10368:	7779                	lui	a4,0xffffe
   1036a:	4107d79b          	sraiw	a5,a5,0x10
   1036e:	177d                	addi	a4,a4,-1
   10370:	8f71                	and	a4,a4,a2
   10372:	00f91823          	sh	a5,16(s2)
   10376:	17c2                	slli	a5,a5,0x30
   10378:	0ae92623          	sw	a4,172(s2)
   1037c:	93c1                	srli	a5,a5,0x30
   1037e:	0087f713          	andi	a4,a5,8
   10382:	26070a63          	beqz	a4,105f6 <_vfprintf_r+0x30c>
   10386:	01893703          	ld	a4,24(s2)
   1038a:	26070663          	beqz	a4,105f6 <_vfprintf_r+0x30c>
   1038e:	8be9                	andi	a5,a5,26
   10390:	4729                	li	a4,10
   10392:	26e78f63          	beq	a5,a4,10610 <_vfprintf_r+0x326>
   10396:	67f1                	lui	a5,0x1c
   10398:	4f87b783          	ld	a5,1272(a5) # 1c4f8 <zeroes.0+0x20>
   1039c:	19010b13          	addi	s6,sp,400
   103a0:	ea5a                	sd	s6,272(sp)
   103a2:	e93e                	sd	a5,144(sp)
   103a4:	67f1                	lui	a5,0x1c
   103a6:	5087b783          	ld	a5,1288(a5) # 1c508 <zeroes.0+0x30>
   103aa:	f202                	sd	zero,288(sp)
   103ac:	10012c23          	sw	zero,280(sp)
   103b0:	ed3e                	sd	a5,152(sp)
   103b2:	67f1                	lui	a5,0x1c
   103b4:	5187b783          	ld	a5,1304(a5) # 1c518 <zeroes.0+0x40>
   103b8:	f002                	sd	zero,32(sp)
   103ba:	f402                	sd	zero,40(sp)
   103bc:	f13e                	sd	a5,160(sp)
   103be:	000cc783          	lbu	a5,0(s9)
   103c2:	fc82                	sd	zero,120(sp)
   103c4:	f082                	sd	zero,96(sp)
   103c6:	e102                	sd	zero,128(sp)
   103c8:	e502                	sd	zero,136(sp)
   103ca:	e402                	sd	zero,8(sp)
   103cc:	835a                	mv	t1,s6
   103ce:	1c078563          	beqz	a5,10598 <_vfprintf_r+0x2ae>
   103d2:	8466                	mv	s0,s9
   103d4:	02500713          	li	a4,37
   103d8:	30e78263          	beq	a5,a4,106dc <_vfprintf_r+0x3f2>
   103dc:	00144783          	lbu	a5,1(s0)
   103e0:	0405                	addi	s0,s0,1
   103e2:	fbfd                	bnez	a5,103d8 <_vfprintf_r+0xee>
   103e4:	419404bb          	subw	s1,s0,s9
   103e8:	1a048863          	beqz	s1,10598 <_vfprintf_r+0x2ae>
   103ec:	11812783          	lw	a5,280(sp)
   103f0:	7712                	ld	a4,288(sp)
   103f2:	01933023          	sd	s9,0(t1)
   103f6:	2785                	addiw	a5,a5,1
   103f8:	9726                	add	a4,a4,s1
   103fa:	00933423          	sd	s1,8(t1)
   103fe:	f23a                	sd	a4,288(sp)
   10400:	10f12c23          	sw	a5,280(sp)
   10404:	0007871b          	sext.w	a4,a5
   10408:	479d                	li	a5,7
   1040a:	0341                	addi	t1,t1,16
   1040c:	2ce7cf63          	blt	a5,a4,106ea <_vfprintf_r+0x400>
   10410:	6722                	ld	a4,8(sp)
   10412:	00044783          	lbu	a5,0(s0)
   10416:	9f25                	addw	a4,a4,s1
   10418:	e43a                	sd	a4,8(sp)
   1041a:	16078f63          	beqz	a5,10598 <_vfprintf_r+0x2ae>
   1041e:	67f1                	lui	a5,0x1c
   10420:	00144e03          	lbu	t3,1(s0)
   10424:	0c010fa3          	sb	zero,223(sp)
   10428:	0405                	addi	s0,s0,1
   1042a:	5c7d                	li	s8,-1
   1042c:	4a81                	li	s5,0
   1042e:	4481                	li	s1,0
   10430:	05a00993          	li	s3,90
   10434:	2c078b93          	addi	s7,a5,704 # 1c2c0 <__clzdi2+0xa8>
   10438:	4da5                	li	s11,9
   1043a:	0405                	addi	s0,s0,1
   1043c:	000e0d1b          	sext.w	s10,t3
   10440:	02a00693          	li	a3,42
   10444:	fe0d079b          	addiw	a5,s10,-32
   10448:	0007871b          	sext.w	a4,a5
   1044c:	04e9e363          	bltu	s3,a4,10492 <_vfprintf_r+0x1a8>
   10450:	02079713          	slli	a4,a5,0x20
   10454:	01e75793          	srli	a5,a4,0x1e
   10458:	97de                	add	a5,a5,s7
   1045a:	439c                	lw	a5,0(a5)
   1045c:	8782                	jr	a5
   1045e:	4a81                	li	s5,0
   10460:	00044703          	lbu	a4,0(s0)
   10464:	002a979b          	slliw	a5,s5,0x2
   10468:	015787bb          	addw	a5,a5,s5
   1046c:	fd0d0e1b          	addiw	t3,s10,-48
   10470:	0017979b          	slliw	a5,a5,0x1
   10474:	fd07061b          	addiw	a2,a4,-48
   10478:	0405                	addi	s0,s0,1
   1047a:	00fe0abb          	addw	s5,t3,a5
   1047e:	00070d1b          	sext.w	s10,a4
   10482:	fccdffe3          	bgeu	s11,a2,10460 <_vfprintf_r+0x176>
   10486:	fe0d079b          	addiw	a5,s10,-32
   1048a:	0007871b          	sext.w	a4,a5
   1048e:	fce9f1e3          	bgeu	s3,a4,10450 <_vfprintf_r+0x166>
   10492:	100d0363          	beqz	s10,10598 <_vfprintf_r+0x2ae>
   10496:	13a10423          	sb	s10,296(sp)
   1049a:	0c010fa3          	sb	zero,223(sp)
   1049e:	4985                	li	s3,1
   104a0:	4b85                	li	s7,1
   104a2:	12810c93          	addi	s9,sp,296
   104a6:	ec02                	sd	zero,24(sp)
   104a8:	4c01                	li	s8,0
   104aa:	e882                	sd	zero,80(sp)
   104ac:	ec82                	sd	zero,88(sp)
   104ae:	e482                	sd	zero,72(sp)
   104b0:	0024f293          	andi	t0,s1,2
   104b4:	00028363          	beqz	t0,104ba <_vfprintf_r+0x1d0>
   104b8:	2989                	addiw	s3,s3,2
   104ba:	0844fd93          	andi	s11,s1,132
   104be:	7792                	ld	a5,288(sp)
   104c0:	000d9663          	bnez	s11,104cc <_vfprintf_r+0x1e2>
   104c4:	413a86bb          	subw	a3,s5,s3
   104c8:	08d049e3          	bgtz	a3,10d5a <_vfprintf_r+0xa70>
   104cc:	0df14703          	lbu	a4,223(sp)
   104d0:	c70d                	beqz	a4,104fa <_vfprintf_r+0x210>
   104d2:	11812703          	lw	a4,280(sp)
   104d6:	0df10693          	addi	a3,sp,223
   104da:	00d33023          	sd	a3,0(t1)
   104de:	2705                	addiw	a4,a4,1
   104e0:	4685                	li	a3,1
   104e2:	0785                	addi	a5,a5,1
   104e4:	00d33423          	sd	a3,8(t1)
   104e8:	10e12c23          	sw	a4,280(sp)
   104ec:	0007069b          	sext.w	a3,a4
   104f0:	f23e                	sd	a5,288(sp)
   104f2:	471d                	li	a4,7
   104f4:	0341                	addi	t1,t1,16
   104f6:	28d74463          	blt	a4,a3,1077e <_vfprintf_r+0x494>
   104fa:	02028563          	beqz	t0,10524 <_vfprintf_r+0x23a>
   104fe:	11812703          	lw	a4,280(sp)
   10502:	1194                	addi	a3,sp,224
   10504:	00d33023          	sd	a3,0(t1)
   10508:	2705                	addiw	a4,a4,1
   1050a:	4689                	li	a3,2
   1050c:	0789                	addi	a5,a5,2
   1050e:	00d33423          	sd	a3,8(t1)
   10512:	10e12c23          	sw	a4,280(sp)
   10516:	0007069b          	sext.w	a3,a4
   1051a:	f23e                	sd	a5,288(sp)
   1051c:	471d                	li	a4,7
   1051e:	0341                	addi	t1,t1,16
   10520:	0cd747e3          	blt	a4,a3,10dee <_vfprintf_r+0xb04>
   10524:	08000713          	li	a4,128
   10528:	6eed8263          	beq	s11,a4,10c0c <_vfprintf_r+0x922>
   1052c:	417c0c3b          	subw	s8,s8,s7
   10530:	77804563          	bgtz	s8,10c9a <_vfprintf_r+0x9b0>
   10534:	1004f713          	andi	a4,s1,256
   10538:	60071263          	bnez	a4,10b3c <_vfprintf_r+0x852>
   1053c:	11812703          	lw	a4,280(sp)
   10540:	97de                	add	a5,a5,s7
   10542:	01933023          	sd	s9,0(t1)
   10546:	0017069b          	addiw	a3,a4,1
   1054a:	8736                	mv	a4,a3
   1054c:	01733423          	sd	s7,8(t1)
   10550:	10e12c23          	sw	a4,280(sp)
   10554:	f23e                	sd	a5,288(sp)
   10556:	471d                	li	a4,7
   10558:	2ed74363          	blt	a4,a3,1083e <_vfprintf_r+0x554>
   1055c:	0341                	addi	t1,t1,16
   1055e:	8891                	andi	s1,s1,4
   10560:	c489                	beqz	s1,1056a <_vfprintf_r+0x280>
   10562:	413a84bb          	subw	s1,s5,s3
   10566:	08904ee3          	bgtz	s1,10e02 <_vfprintf_r+0xb18>
   1056a:	8756                	mv	a4,s5
   1056c:	013ad363          	bge	s5,s3,10572 <_vfprintf_r+0x288>
   10570:	874e                	mv	a4,s3
   10572:	66a2                	ld	a3,8(sp)
   10574:	9f35                	addw	a4,a4,a3
   10576:	e43a                	sd	a4,8(sp)
   10578:	7a079263          	bnez	a5,10d1c <_vfprintf_r+0xa32>
   1057c:	67e2                	ld	a5,24(sp)
   1057e:	10012c23          	sw	zero,280(sp)
   10582:	c789                	beqz	a5,1058c <_vfprintf_r+0x2a2>
   10584:	65e2                	ld	a1,24(sp)
   10586:	8552                	mv	a0,s4
   10588:	002020ef          	jal	ra,1258a <_free_r>
   1058c:	835a                	mv	t1,s6
   1058e:	8ca2                	mv	s9,s0
   10590:	000cc783          	lbu	a5,0(s9)
   10594:	e2079fe3          	bnez	a5,103d2 <_vfprintf_r+0xe8>
   10598:	7792                	ld	a5,288(sp)
   1059a:	c399                	beqz	a5,105a0 <_vfprintf_r+0x2b6>
   1059c:	31a0106f          	j	118b6 <_vfprintf_r+0x15cc>
   105a0:	01095783          	lhu	a5,16(s2)
   105a4:	0407f793          	andi	a5,a5,64
   105a8:	c399                	beqz	a5,105ae <_vfprintf_r+0x2c4>
   105aa:	5b00106f          	j	11b5a <_vfprintf_r+0x1870>
   105ae:	27813083          	ld	ra,632(sp)
   105b2:	27013403          	ld	s0,624(sp)
   105b6:	6522                	ld	a0,8(sp)
   105b8:	26813483          	ld	s1,616(sp)
   105bc:	26013903          	ld	s2,608(sp)
   105c0:	25813983          	ld	s3,600(sp)
   105c4:	25013a03          	ld	s4,592(sp)
   105c8:	24813a83          	ld	s5,584(sp)
   105cc:	24013b03          	ld	s6,576(sp)
   105d0:	23813b83          	ld	s7,568(sp)
   105d4:	23013c03          	ld	s8,560(sp)
   105d8:	22813c83          	ld	s9,552(sp)
   105dc:	22013d03          	ld	s10,544(sp)
   105e0:	21813d83          	ld	s11,536(sp)
   105e4:	28010113          	addi	sp,sp,640
   105e8:	8082                	ret
   105ea:	0104e493          	ori	s1,s1,16
   105ee:	00044e03          	lbu	t3,0(s0)
   105f2:	2481                	sext.w	s1,s1
   105f4:	b599                	j	1043a <_vfprintf_r+0x150>
   105f6:	85ca                	mv	a1,s2
   105f8:	8552                	mv	a0,s4
   105fa:	02d010ef          	jal	ra,11e26 <__swsetup_r>
   105fe:	c119                	beqz	a0,10604 <_vfprintf_r+0x31a>
   10600:	55a0106f          	j	11b5a <_vfprintf_r+0x1870>
   10604:	01095783          	lhu	a5,16(s2)
   10608:	4729                	li	a4,10
   1060a:	8be9                	andi	a5,a5,26
   1060c:	d8e795e3          	bne	a5,a4,10396 <_vfprintf_r+0xac>
   10610:	01291783          	lh	a5,18(s2)
   10614:	d807c1e3          	bltz	a5,10396 <_vfprintf_r+0xac>
   10618:	66c2                	ld	a3,16(sp)
   1061a:	8666                	mv	a2,s9
   1061c:	85ca                	mv	a1,s2
   1061e:	8552                	mv	a0,s4
   10620:	772010ef          	jal	ra,11d92 <__sbprintf>
   10624:	e42a                	sd	a0,8(sp)
   10626:	b761                	j	105ae <_vfprintf_r+0x2c4>
   10628:	0104e493          	ori	s1,s1,16
   1062c:	2481                	sext.w	s1,s1
   1062e:	66c2                	ld	a3,16(sp)
   10630:	0204f793          	andi	a5,s1,32
   10634:	00868713          	addi	a4,a3,8 # 2008 <register_fini-0xe0a8>
   10638:	22078c63          	beqz	a5,10870 <_vfprintf_r+0x586>
   1063c:	629c                	ld	a5,0(a3)
   1063e:	89be                	mv	s3,a5
   10640:	2407ca63          	bltz	a5,10894 <_vfprintf_r+0x5aa>
   10644:	57fd                	li	a5,-1
   10646:	26fc01e3          	beq	s8,a5,110a8 <_vfprintf_r+0xdbe>
   1064a:	f7f4fd93          	andi	s11,s1,-129
   1064e:	e83a                	sd	a4,16(sp)
   10650:	2d81                	sext.w	s11,s11
   10652:	6e099863          	bnez	s3,10d42 <_vfprintf_r+0xa58>
   10656:	6e0c1963          	bnez	s8,10d48 <_vfprintf_r+0xa5e>
   1065a:	84ee                	mv	s1,s11
   1065c:	4c01                	li	s8,0
   1065e:	4b81                	li	s7,0
   10660:	18c10c93          	addi	s9,sp,396
   10664:	0df14783          	lbu	a5,223(sp)
   10668:	000b899b          	sext.w	s3,s7
   1066c:	018bd463          	bge	s7,s8,10674 <_vfprintf_r+0x38a>
   10670:	000c099b          	sext.w	s3,s8
   10674:	ec02                	sd	zero,24(sp)
   10676:	e882                	sd	zero,80(sp)
   10678:	ec82                	sd	zero,88(sp)
   1067a:	e482                	sd	zero,72(sp)
   1067c:	e2078ae3          	beqz	a5,104b0 <_vfprintf_r+0x1c6>
   10680:	2985                	addiw	s3,s3,1
   10682:	b53d                	j	104b0 <_vfprintf_r+0x1c6>
   10684:	0104e493          	ori	s1,s1,16
   10688:	2481                	sext.w	s1,s1
   1068a:	66c2                	ld	a3,16(sp)
   1068c:	0204f793          	andi	a5,s1,32
   10690:	00868713          	addi	a4,a3,8
   10694:	1a078f63          	beqz	a5,10852 <_vfprintf_r+0x568>
   10698:	0006b983          	ld	s3,0(a3)
   1069c:	bff4fd93          	andi	s11,s1,-1025
   106a0:	2d81                	sext.w	s11,s11
   106a2:	e83a                	sd	a4,16(sp)
   106a4:	4781                	li	a5,0
   106a6:	4701                	li	a4,0
   106a8:	0ce10fa3          	sb	a4,223(sp)
   106ac:	577d                	li	a4,-1
   106ae:	1eec0f63          	beq	s8,a4,108ac <_vfprintf_r+0x5c2>
   106b2:	f7fdf493          	andi	s1,s11,-129
   106b6:	2481                	sext.w	s1,s1
   106b8:	68099163          	bnez	s3,10d3a <_vfprintf_r+0xa50>
   106bc:	440c1363          	bnez	s8,10b02 <_vfprintf_r+0x818>
   106c0:	ffd1                	bnez	a5,1065c <_vfprintf_r+0x372>
   106c2:	001dfb93          	andi	s7,s11,1
   106c6:	18c10c93          	addi	s9,sp,396
   106ca:	f80b8de3          	beqz	s7,10664 <_vfprintf_r+0x37a>
   106ce:	03000793          	li	a5,48
   106d2:	18f105a3          	sb	a5,395(sp)
   106d6:	18b10c93          	addi	s9,sp,395
   106da:	b769                	j	10664 <_vfprintf_r+0x37a>
   106dc:	419404bb          	subw	s1,s0,s9
   106e0:	d00496e3          	bnez	s1,103ec <_vfprintf_r+0x102>
   106e4:	00044783          	lbu	a5,0(s0)
   106e8:	bb0d                	j	1041a <_vfprintf_r+0x130>
   106ea:	0a10                	addi	a2,sp,272
   106ec:	85ca                	mv	a1,s2
   106ee:	8552                	mv	a0,s4
   106f0:	5ba070ef          	jal	ra,17caa <__sprint_r>
   106f4:	ea0516e3          	bnez	a0,105a0 <_vfprintf_r+0x2b6>
   106f8:	835a                	mv	t1,s6
   106fa:	bb19                	j	10410 <_vfprintf_r+0x126>
   106fc:	0084f793          	andi	a5,s1,8
   10700:	180789e3          	beqz	a5,11092 <_vfprintf_r+0xda8>
   10704:	67c2                	ld	a5,16(sp)
   10706:	07bd                	addi	a5,a5,15
   10708:	ff07f713          	andi	a4,a5,-16
   1070c:	631c                	ld	a5,0(a4)
   1070e:	670c                	ld	a1,8(a4)
   10710:	0741                	addi	a4,a4,16
   10712:	e83a                	sd	a4,16(sp)
   10714:	0208                	addi	a0,sp,256
   10716:	ec1a                	sd	t1,24(sp)
   10718:	e23e                	sd	a5,256(sp)
   1071a:	e62e                	sd	a1,264(sp)
   1071c:	1aa040ef          	jal	ra,148c6 <_ldcheck>
   10720:	d5aa                	sw	a0,232(sp)
   10722:	4789                	li	a5,2
   10724:	6362                	ld	t1,24(sp)
   10726:	50f509e3          	beq	a0,a5,11438 <_vfprintf_r+0x114e>
   1072a:	4785                	li	a5,1
   1072c:	68f500e3          	beq	a0,a5,115ac <_vfprintf_r+0x12c2>
   10730:	06100793          	li	a5,97
   10734:	2efd09e3          	beq	s10,a5,11226 <_vfprintf_r+0xf3c>
   10738:	04100793          	li	a5,65
   1073c:	05800713          	li	a4,88
   10740:	2efd05e3          	beq	s10,a5,1122a <_vfprintf_r+0xf40>
   10744:	fdfd7713          	andi	a4,s10,-33
   10748:	57fd                	li	a5,-1
   1074a:	ecba                	sd	a4,88(sp)
   1074c:	00fc1463          	bne	s8,a5,10754 <_vfprintf_r+0x46a>
   10750:	5000106f          	j	11c50 <_vfprintf_r+0x1966>
   10754:	04700793          	li	a5,71
   10758:	00f71463          	bne	a4,a5,10760 <_vfprintf_r+0x476>
   1075c:	4e60106f          	j	11c42 <_vfprintf_r+0x1958>
   10760:	69b2                	ld	s3,264(sp)
   10762:	1004e793          	ori	a5,s1,256
   10766:	f526                	sd	s1,168(sp)
   10768:	6b92                	ld	s7,256(sp)
   1076a:	2781                	sext.w	a5,a5
   1076c:	0009d463          	bgez	s3,10774 <_vfprintf_r+0x48a>
   10770:	15e0106f          	j	118ce <_vfprintf_r+0x15e4>
   10774:	e582                	sd	zero,200(sp)
   10776:	84be                	mv	s1,a5
   10778:	ec02                	sd	zero,24(sp)
   1077a:	2f10006f          	j	1126a <_vfprintf_r+0xf80>
   1077e:	0a10                	addi	a2,sp,272
   10780:	85ca                	mv	a1,s2
   10782:	8552                	mv	a0,s4
   10784:	f816                	sd	t0,48(sp)
   10786:	524070ef          	jal	ra,17caa <__sprint_r>
   1078a:	5a051063          	bnez	a0,10d2a <_vfprintf_r+0xa40>
   1078e:	7792                	ld	a5,288(sp)
   10790:	72c2                	ld	t0,48(sp)
   10792:	835a                	mv	t1,s6
   10794:	b39d                	j	104fa <_vfprintf_r+0x210>
   10796:	11812683          	lw	a3,280(sp)
   1079a:	00178d13          	addi	s10,a5,1
   1079e:	7782                	ld	a5,32(sp)
   107a0:	00168b9b          	addiw	s7,a3,1
   107a4:	4605                	li	a2,1
   107a6:	01933023          	sd	s9,0(t1)
   107aa:	86de                	mv	a3,s7
   107ac:	01030c13          	addi	s8,t1,16
   107b0:	7ef65e63          	bge	a2,a5,10fac <_vfprintf_r+0xcc2>
   107b4:	4605                	li	a2,1
   107b6:	10d12c23          	sw	a3,280(sp)
   107ba:	00c33423          	sd	a2,8(t1)
   107be:	f26a                	sd	s10,288(sp)
   107c0:	469d                	li	a3,7
   107c2:	3b76c2e3          	blt	a3,s7,11366 <_vfprintf_r+0x107c>
   107c6:	77a6                	ld	a5,104(sp)
   107c8:	7746                	ld	a4,112(sp)
   107ca:	2b85                	addiw	s7,s7,1
   107cc:	9d3e                	add	s10,s10,a5
   107ce:	00ec3023          	sd	a4,0(s8)
   107d2:	00fc3423          	sd	a5,8(s8)
   107d6:	f26a                	sd	s10,288(sp)
   107d8:	11712c23          	sw	s7,280(sp)
   107dc:	469d                	li	a3,7
   107de:	0c41                	addi	s8,s8,16
   107e0:	3b76c0e3          	blt	a3,s7,11380 <_vfprintf_r+0x1096>
   107e4:	6512                	ld	a0,256(sp)
   107e6:	65b2                	ld	a1,264(sp)
   107e8:	4681                	li	a3,0
   107ea:	4601                	li	a2,0
   107ec:	5c20a0ef          	jal	ra,1adae <__eqtf2>
   107f0:	7782                	ld	a5,32(sp)
   107f2:	fff7869b          	addiw	a3,a5,-1
   107f6:	7e050463          	beqz	a0,10fde <_vfprintf_r+0xcf4>
   107fa:	2b85                	addiw	s7,s7,1
   107fc:	001c8813          	addi	a6,s9,1
   10800:	865e                	mv	a2,s7
   10802:	9d36                	add	s10,s10,a3
   10804:	010c3023          	sd	a6,0(s8)
   10808:	00dc3423          	sd	a3,8(s8)
   1080c:	f26a                	sd	s10,288(sp)
   1080e:	10c12c23          	sw	a2,280(sp)
   10812:	469d                	li	a3,7
   10814:	0c41                	addi	s8,s8,16
   10816:	7b76c763          	blt	a3,s7,10fc4 <_vfprintf_r+0xcda>
   1081a:	7766                	ld	a4,120(sp)
   1081c:	1994                	addi	a3,sp,240
   1081e:	001b861b          	addiw	a2,s7,1
   10822:	01a707b3          	add	a5,a4,s10
   10826:	00dc3023          	sd	a3,0(s8)
   1082a:	00ec3423          	sd	a4,8(s8)
   1082e:	f23e                	sd	a5,288(sp)
   10830:	10c12c23          	sw	a2,280(sp)
   10834:	469d                	li	a3,7
   10836:	010c0313          	addi	t1,s8,16
   1083a:	d2c6d2e3          	bge	a3,a2,1055e <_vfprintf_r+0x274>
   1083e:	0a10                	addi	a2,sp,272
   10840:	85ca                	mv	a1,s2
   10842:	8552                	mv	a0,s4
   10844:	466070ef          	jal	ra,17caa <__sprint_r>
   10848:	4e051163          	bnez	a0,10d2a <_vfprintf_r+0xa40>
   1084c:	7792                	ld	a5,288(sp)
   1084e:	835a                	mv	t1,s6
   10850:	b339                	j	1055e <_vfprintf_r+0x274>
   10852:	0104f793          	andi	a5,s1,16
   10856:	020799e3          	bnez	a5,11088 <_vfprintf_r+0xd9e>
   1085a:	66c2                	ld	a3,16(sp)
   1085c:	0404f793          	andi	a5,s1,64
   10860:	0006a983          	lw	s3,0(a3)
   10864:	4c0782e3          	beqz	a5,11528 <_vfprintf_r+0x123e>
   10868:	19c2                	slli	s3,s3,0x30
   1086a:	0309d993          	srli	s3,s3,0x30
   1086e:	b53d                	j	1069c <_vfprintf_r+0x3b2>
   10870:	0104f793          	andi	a5,s1,16
   10874:	7e079e63          	bnez	a5,11070 <_vfprintf_r+0xd86>
   10878:	66c2                	ld	a3,16(sp)
   1087a:	0404f793          	andi	a5,s1,64
   1087e:	0006a983          	lw	s3,0(a3)
   10882:	4a078be3          	beqz	a5,11538 <_vfprintf_r+0x124e>
   10886:	0109999b          	slliw	s3,s3,0x10
   1088a:	4109d99b          	sraiw	s3,s3,0x10
   1088e:	87ce                	mv	a5,s3
   10890:	da07dae3          	bgez	a5,10644 <_vfprintf_r+0x35a>
   10894:	e83a                	sd	a4,16(sp)
   10896:	02d00713          	li	a4,45
   1089a:	0ce10fa3          	sb	a4,223(sp)
   1089e:	577d                	li	a4,-1
   108a0:	413009b3          	neg	s3,s3
   108a4:	8da6                	mv	s11,s1
   108a6:	4785                	li	a5,1
   108a8:	e0ec15e3          	bne	s8,a4,106b2 <_vfprintf_r+0x3c8>
   108ac:	4705                	li	a4,1
   108ae:	48e78a63          	beq	a5,a4,10d42 <_vfprintf_r+0xa58>
   108b2:	4709                	li	a4,2
   108b4:	26e78063          	beq	a5,a4,10b14 <_vfprintf_r+0x82a>
   108b8:	18c10b93          	addi	s7,sp,396
   108bc:	8cde                	mv	s9,s7
   108be:	0079f793          	andi	a5,s3,7
   108c2:	03078793          	addi	a5,a5,48
   108c6:	fefc8fa3          	sb	a5,-1(s9)
   108ca:	0039d993          	srli	s3,s3,0x3
   108ce:	8766                	mv	a4,s9
   108d0:	1cfd                	addi	s9,s9,-1
   108d2:	fe0996e3          	bnez	s3,108be <_vfprintf_r+0x5d4>
   108d6:	001df693          	andi	a3,s11,1
   108da:	24068d63          	beqz	a3,10b34 <_vfprintf_r+0x84a>
   108de:	03000693          	li	a3,48
   108e2:	24d78963          	beq	a5,a3,10b34 <_vfprintf_r+0x84a>
   108e6:	1779                	addi	a4,a4,-2
   108e8:	fedc8fa3          	sb	a3,-1(s9)
   108ec:	40eb8bbb          	subw	s7,s7,a4
   108f0:	84ee                	mv	s1,s11
   108f2:	8cba                	mv	s9,a4
   108f4:	bb85                	j	10664 <_vfprintf_r+0x37a>
   108f6:	8552                	mv	a0,s4
   108f8:	363010ef          	jal	ra,1245a <__sinit>
   108fc:	b4b9                	j	1034a <_vfprintf_r+0x60>
   108fe:	67c2                	ld	a5,16(sp)
   10900:	0c010fa3          	sb	zero,223(sp)
   10904:	0007bc83          	ld	s9,0(a5)
   10908:	00878d93          	addi	s11,a5,8
   1090c:	0a0c8be3          	beqz	s9,111c2 <_vfprintf_r+0xed8>
   10910:	57fd                	li	a5,-1
   10912:	36fc0ae3          	beq	s8,a5,11486 <_vfprintf_r+0x119c>
   10916:	8662                	mv	a2,s8
   10918:	4581                	li	a1,0
   1091a:	8566                	mv	a0,s9
   1091c:	e81a                	sd	t1,16(sp)
   1091e:	7ae040ef          	jal	ra,150cc <memchr>
   10922:	ec2a                	sd	a0,24(sp)
   10924:	6342                	ld	t1,16(sp)
   10926:	e119                	bnez	a0,1092c <_vfprintf_r+0x642>
   10928:	1a40106f          	j	11acc <_vfprintf_r+0x17e2>
   1092c:	67e2                	ld	a5,24(sp)
   1092e:	e86e                	sd	s11,16(sp)
   10930:	ec02                	sd	zero,24(sp)
   10932:	41978bbb          	subw	s7,a5,s9
   10936:	0df14783          	lbu	a5,223(sp)
   1093a:	fffbc993          	not	s3,s7
   1093e:	43f9d993          	srai	s3,s3,0x3f
   10942:	e882                	sd	zero,80(sp)
   10944:	ec82                	sd	zero,88(sp)
   10946:	e482                	sd	zero,72(sp)
   10948:	0179f9b3          	and	s3,s3,s7
   1094c:	4c01                	li	s8,0
   1094e:	d20799e3          	bnez	a5,10680 <_vfprintf_r+0x396>
   10952:	beb9                	j	104b0 <_vfprintf_r+0x1c6>
   10954:	6742                	ld	a4,16(sp)
   10956:	0c010fa3          	sb	zero,223(sp)
   1095a:	4985                	li	s3,1
   1095c:	431c                	lw	a5,0(a4)
   1095e:	0721                	addi	a4,a4,8
   10960:	e83a                	sd	a4,16(sp)
   10962:	12f10423          	sb	a5,296(sp)
   10966:	4b85                	li	s7,1
   10968:	12810c93          	addi	s9,sp,296
   1096c:	be2d                	j	104a6 <_vfprintf_r+0x1bc>
   1096e:	67c2                	ld	a5,16(sp)
   10970:	0007aa83          	lw	s5,0(a5)
   10974:	07a1                	addi	a5,a5,8
   10976:	6e0ad363          	bgez	s5,1105c <_vfprintf_r+0xd72>
   1097a:	41500abb          	negw	s5,s5
   1097e:	e83e                	sd	a5,16(sp)
   10980:	0044e493          	ori	s1,s1,4
   10984:	00044e03          	lbu	t3,0(s0)
   10988:	2481                	sext.w	s1,s1
   1098a:	bc45                	j	1043a <_vfprintf_r+0x150>
   1098c:	02b00793          	li	a5,43
   10990:	00044e03          	lbu	t3,0(s0)
   10994:	0cf10fa3          	sb	a5,223(sp)
   10998:	b44d                	j	1043a <_vfprintf_r+0x150>
   1099a:	0804e493          	ori	s1,s1,128
   1099e:	00044e03          	lbu	t3,0(s0)
   109a2:	2481                	sext.w	s1,s1
   109a4:	bc59                	j	1043a <_vfprintf_r+0x150>
   109a6:	00044d03          	lbu	s10,0(s0)
   109aa:	00140793          	addi	a5,s0,1
   109ae:	00dd1463          	bne	s10,a3,109b6 <_vfprintf_r+0x6cc>
   109b2:	39a0106f          	j	11d4c <_vfprintf_r+0x1a62>
   109b6:	fd0d071b          	addiw	a4,s10,-48
   109ba:	843e                	mv	s0,a5
   109bc:	4c01                	li	s8,0
   109be:	a8ede3e3          	bltu	s11,a4,10444 <_vfprintf_r+0x15a>
   109c2:	00044d03          	lbu	s10,0(s0)
   109c6:	002c179b          	slliw	a5,s8,0x2
   109ca:	018787bb          	addw	a5,a5,s8
   109ce:	0017979b          	slliw	a5,a5,0x1
   109d2:	00e78c3b          	addw	s8,a5,a4
   109d6:	fd0d071b          	addiw	a4,s10,-48
   109da:	0405                	addi	s0,s0,1
   109dc:	feedf3e3          	bgeu	s11,a4,109c2 <_vfprintf_r+0x6d8>
   109e0:	b495                	j	10444 <_vfprintf_r+0x15a>
   109e2:	8552                	mv	a0,s4
   109e4:	ec1a                	sd	t1,24(sp)
   109e6:	729030ef          	jal	ra,1490e <_localeconv_r>
   109ea:	651c                	ld	a5,8(a0)
   109ec:	853e                	mv	a0,a5
   109ee:	e53e                	sd	a5,136(sp)
   109f0:	6c8050ef          	jal	ra,160b8 <strlen>
   109f4:	87aa                	mv	a5,a0
   109f6:	8552                	mv	a0,s4
   109f8:	8d3e                	mv	s10,a5
   109fa:	e13e                	sd	a5,128(sp)
   109fc:	713030ef          	jal	ra,1490e <_localeconv_r>
   10a00:	691c                	ld	a5,16(a0)
   10a02:	6362                	ld	t1,24(sp)
   10a04:	00044e03          	lbu	t3,0(s0)
   10a08:	f0be                	sd	a5,96(sp)
   10a0a:	a20d08e3          	beqz	s10,1043a <_vfprintf_r+0x150>
   10a0e:	a20786e3          	beqz	a5,1043a <_vfprintf_r+0x150>
   10a12:	0007c783          	lbu	a5,0(a5)
   10a16:	a20782e3          	beqz	a5,1043a <_vfprintf_r+0x150>
   10a1a:	4004e493          	ori	s1,s1,1024
   10a1e:	2481                	sext.w	s1,s1
   10a20:	bc29                	j	1043a <_vfprintf_r+0x150>
   10a22:	0014e493          	ori	s1,s1,1
   10a26:	00044e03          	lbu	t3,0(s0)
   10a2a:	2481                	sext.w	s1,s1
   10a2c:	b439                	j	1043a <_vfprintf_r+0x150>
   10a2e:	0df14783          	lbu	a5,223(sp)
   10a32:	00044e03          	lbu	t3,0(s0)
   10a36:	a00792e3          	bnez	a5,1043a <_vfprintf_r+0x150>
   10a3a:	02000793          	li	a5,32
   10a3e:	0cf10fa3          	sb	a5,223(sp)
   10a42:	bae5                	j	1043a <_vfprintf_r+0x150>
   10a44:	0084e493          	ori	s1,s1,8
   10a48:	00044e03          	lbu	t3,0(s0)
   10a4c:	2481                	sext.w	s1,s1
   10a4e:	b2f5                	j	1043a <_vfprintf_r+0x150>
   10a50:	0104ed93          	ori	s11,s1,16
   10a54:	2d81                	sext.w	s11,s11
   10a56:	66c2                	ld	a3,16(sp)
   10a58:	020df793          	andi	a5,s11,32
   10a5c:	00868713          	addi	a4,a3,8
   10a60:	5c078863          	beqz	a5,11030 <_vfprintf_r+0xd46>
   10a64:	0006b983          	ld	s3,0(a3)
   10a68:	4785                	li	a5,1
   10a6a:	e83a                	sd	a4,16(sp)
   10a6c:	b92d                	j	106a6 <_vfprintf_r+0x3bc>
   10a6e:	0204e493          	ori	s1,s1,32
   10a72:	00044e03          	lbu	t3,0(s0)
   10a76:	2481                	sext.w	s1,s1
   10a78:	b2c9                	j	1043a <_vfprintf_r+0x150>
   10a7a:	6742                	ld	a4,16(sp)
   10a7c:	77e1                	lui	a5,0xffff8
   10a7e:	8307c793          	xori	a5,a5,-2000
   10a82:	0ef11023          	sh	a5,224(sp)
   10a86:	00870793          	addi	a5,a4,8 # ffffffffffffe008 <__BSS_END__+0xfffffffffffdec88>
   10a8a:	e83e                	sd	a5,16(sp)
   10a8c:	67f1                	lui	a5,0x1c
   10a8e:	28078793          	addi	a5,a5,640 # 1c280 <__clzdi2+0x68>
   10a92:	0024ed93          	ori	s11,s1,2
   10a96:	f43e                	sd	a5,40(sp)
   10a98:	00073983          	ld	s3,0(a4)
   10a9c:	2d81                	sext.w	s11,s11
   10a9e:	4789                	li	a5,2
   10aa0:	07800d13          	li	s10,120
   10aa4:	b109                	j	106a6 <_vfprintf_r+0x3bc>
   10aa6:	66c2                	ld	a3,16(sp)
   10aa8:	0204f793          	andi	a5,s1,32
   10aac:	6298                	ld	a4,0(a3)
   10aae:	06a1                	addi	a3,a3,8
   10ab0:	e836                	sd	a3,16(sp)
   10ab2:	5a079a63          	bnez	a5,11066 <_vfprintf_r+0xd7c>
   10ab6:	0104f793          	andi	a5,s1,16
   10aba:	5a079663          	bnez	a5,11066 <_vfprintf_r+0xd7c>
   10abe:	0404f793          	andi	a5,s1,64
   10ac2:	5c0791e3          	bnez	a5,11884 <_vfprintf_r+0x159a>
   10ac6:	2004f493          	andi	s1,s1,512
   10aca:	67a2                	ld	a5,8(sp)
   10acc:	e099                	bnez	s1,10ad2 <_vfprintf_r+0x7e8>
   10ace:	1880106f          	j	11c56 <_vfprintf_r+0x196c>
   10ad2:	00f70023          	sb	a5,0(a4)
   10ad6:	8ca2                	mv	s9,s0
   10ad8:	bc65                	j	10590 <_vfprintf_r+0x2a6>
   10ada:	00044e03          	lbu	t3,0(s0)
   10ade:	06c00793          	li	a5,108
   10ae2:	6afe0e63          	beq	t3,a5,1119e <_vfprintf_r+0xeb4>
   10ae6:	0104e493          	ori	s1,s1,16
   10aea:	2481                	sext.w	s1,s1
   10aec:	b2b9                	j	1043a <_vfprintf_r+0x150>
   10aee:	00044e03          	lbu	t3,0(s0)
   10af2:	06800793          	li	a5,104
   10af6:	68fe0763          	beq	t3,a5,11184 <_vfprintf_r+0xe9a>
   10afa:	0404e493          	ori	s1,s1,64
   10afe:	2481                	sext.w	s1,s1
   10b00:	ba2d                	j	1043a <_vfprintf_r+0x150>
   10b02:	4705                	li	a4,1
   10b04:	00e79463          	bne	a5,a4,10b0c <_vfprintf_r+0x822>
   10b08:	12a0106f          	j	11c32 <_vfprintf_r+0x1948>
   10b0c:	4709                	li	a4,2
   10b0e:	8da6                	mv	s11,s1
   10b10:	dae794e3          	bne	a5,a4,108b8 <_vfprintf_r+0x5ce>
   10b14:	18c10b93          	addi	s7,sp,396
   10b18:	8cde                	mv	s9,s7
   10b1a:	7722                	ld	a4,40(sp)
   10b1c:	00f9f793          	andi	a5,s3,15
   10b20:	1cfd                	addi	s9,s9,-1
   10b22:	97ba                	add	a5,a5,a4
   10b24:	0007c783          	lbu	a5,0(a5)
   10b28:	0049d993          	srli	s3,s3,0x4
   10b2c:	00fc8023          	sb	a5,0(s9)
   10b30:	fe0995e3          	bnez	s3,10b1a <_vfprintf_r+0x830>
   10b34:	419b8bbb          	subw	s7,s7,s9
   10b38:	84ee                	mv	s1,s11
   10b3a:	b62d                	j	10664 <_vfprintf_r+0x37a>
   10b3c:	06500713          	li	a4,101
   10b40:	c5a75be3          	bge	a4,s10,10796 <_vfprintf_r+0x4ac>
   10b44:	6512                	ld	a0,256(sp)
   10b46:	65b2                	ld	a1,264(sp)
   10b48:	4601                	li	a2,0
   10b4a:	4681                	li	a3,0
   10b4c:	fc3e                	sd	a5,56(sp)
   10b4e:	f81a                	sd	t1,48(sp)
   10b50:	25e0a0ef          	jal	ra,1adae <__eqtf2>
   10b54:	7342                	ld	t1,48(sp)
   10b56:	77e2                	ld	a5,56(sp)
   10b58:	32051663          	bnez	a0,10e84 <_vfprintf_r+0xb9a>
   10b5c:	11812703          	lw	a4,280(sp)
   10b60:	66f1                	lui	a3,0x1c
   10b62:	2b868693          	addi	a3,a3,696 # 1c2b8 <__clzdi2+0xa0>
   10b66:	2705                	addiw	a4,a4,1
   10b68:	00d33023          	sd	a3,0(t1)
   10b6c:	0785                	addi	a5,a5,1
   10b6e:	4685                	li	a3,1
   10b70:	00d33423          	sd	a3,8(t1)
   10b74:	10e12c23          	sw	a4,280(sp)
   10b78:	0007069b          	sext.w	a3,a4
   10b7c:	f23e                	sd	a5,288(sp)
   10b7e:	471d                	li	a4,7
   10b80:	0341                	addi	t1,t1,16
   10b82:	08d748e3          	blt	a4,a3,11412 <_vfprintf_r+0x1128>
   10b86:	572e                	lw	a4,232(sp)
   10b88:	7682                	ld	a3,32(sp)
   10b8a:	4cd75463          	bge	a4,a3,11052 <_vfprintf_r+0xd68>
   10b8e:	76a6                	ld	a3,104(sp)
   10b90:	11812703          	lw	a4,280(sp)
   10b94:	7646                	ld	a2,112(sp)
   10b96:	97b6                	add	a5,a5,a3
   10b98:	2705                	addiw	a4,a4,1
   10b9a:	00d33423          	sd	a3,8(t1)
   10b9e:	00c33023          	sd	a2,0(t1)
   10ba2:	0007069b          	sext.w	a3,a4
   10ba6:	10e12c23          	sw	a4,280(sp)
   10baa:	f23e                	sd	a5,288(sp)
   10bac:	471d                	li	a4,7
   10bae:	0341                	addi	t1,t1,16
   10bb0:	5ed74f63          	blt	a4,a3,111ae <_vfprintf_r+0xec4>
   10bb4:	7702                	ld	a4,32(sp)
   10bb6:	fff70b9b          	addiw	s7,a4,-1
   10bba:	9b7052e3          	blez	s7,1055e <_vfprintf_r+0x274>
   10bbe:	68f1                	lui	a7,0x1c
   10bc0:	46c1                	li	a3,16
   10bc2:	11812703          	lw	a4,280(sp)
   10bc6:	4d888d93          	addi	s11,a7,1240 # 1c4d8 <zeroes.0>
   10bca:	4cc1                	li	s9,16
   10bcc:	4c1d                	li	s8,7
   10bce:	0176c763          	blt	a3,s7,10bdc <_vfprintf_r+0x8f2>
   10bd2:	0570006f          	j	11428 <_vfprintf_r+0x113e>
   10bd6:	3bc1                	addiw	s7,s7,-16
   10bd8:	057cd8e3          	bge	s9,s7,11428 <_vfprintf_r+0x113e>
   10bdc:	2705                	addiw	a4,a4,1
   10bde:	07c1                	addi	a5,a5,16
   10be0:	01b33023          	sd	s11,0(t1)
   10be4:	01933423          	sd	s9,8(t1)
   10be8:	f23e                	sd	a5,288(sp)
   10bea:	10e12c23          	sw	a4,280(sp)
   10bee:	0341                	addi	t1,t1,16
   10bf0:	feec53e3          	bge	s8,a4,10bd6 <_vfprintf_r+0x8ec>
   10bf4:	0a10                	addi	a2,sp,272
   10bf6:	85ca                	mv	a1,s2
   10bf8:	8552                	mv	a0,s4
   10bfa:	0b0070ef          	jal	ra,17caa <__sprint_r>
   10bfe:	12051663          	bnez	a0,10d2a <_vfprintf_r+0xa40>
   10c02:	7792                	ld	a5,288(sp)
   10c04:	11812703          	lw	a4,280(sp)
   10c08:	835a                	mv	t1,s6
   10c0a:	b7f1                	j	10bd6 <_vfprintf_r+0x8ec>
   10c0c:	413a86bb          	subw	a3,s5,s3
   10c10:	90d05ee3          	blez	a3,1052c <_vfprintf_r+0x242>
   10c14:	68f1                	lui	a7,0x1c
   10c16:	4641                	li	a2,16
   10c18:	11812703          	lw	a4,280(sp)
   10c1c:	4d888d93          	addi	s11,a7,1240 # 1c4d8 <zeroes.0>
   10c20:	4f41                	li	t5,16
   10c22:	4f9d                	li	t6,7
   10c24:	00d64663          	blt	a2,a3,10c30 <_vfprintf_r+0x946>
   10c28:	a089                	j	10c6a <_vfprintf_r+0x980>
   10c2a:	36c1                	addiw	a3,a3,-16
   10c2c:	02df5f63          	bge	t5,a3,10c6a <_vfprintf_r+0x980>
   10c30:	2705                	addiw	a4,a4,1
   10c32:	07c1                	addi	a5,a5,16
   10c34:	01b33023          	sd	s11,0(t1)
   10c38:	01e33423          	sd	t5,8(t1)
   10c3c:	f23e                	sd	a5,288(sp)
   10c3e:	10e12c23          	sw	a4,280(sp)
   10c42:	0341                	addi	t1,t1,16
   10c44:	feefd3e3          	bge	t6,a4,10c2a <_vfprintf_r+0x940>
   10c48:	0a10                	addi	a2,sp,272
   10c4a:	85ca                	mv	a1,s2
   10c4c:	8552                	mv	a0,s4
   10c4e:	f836                	sd	a3,48(sp)
   10c50:	05a070ef          	jal	ra,17caa <__sprint_r>
   10c54:	e979                	bnez	a0,10d2a <_vfprintf_r+0xa40>
   10c56:	76c2                	ld	a3,48(sp)
   10c58:	4f41                	li	t5,16
   10c5a:	7792                	ld	a5,288(sp)
   10c5c:	36c1                	addiw	a3,a3,-16
   10c5e:	11812703          	lw	a4,280(sp)
   10c62:	835a                	mv	t1,s6
   10c64:	4f9d                	li	t6,7
   10c66:	fcdf45e3          	blt	t5,a3,10c30 <_vfprintf_r+0x946>
   10c6a:	2705                	addiw	a4,a4,1
   10c6c:	97b6                	add	a5,a5,a3
   10c6e:	00d33423          	sd	a3,8(t1)
   10c72:	01b33023          	sd	s11,0(t1)
   10c76:	0007069b          	sext.w	a3,a4
   10c7a:	10e12c23          	sw	a4,280(sp)
   10c7e:	f23e                	sd	a5,288(sp)
   10c80:	471d                	li	a4,7
   10c82:	0341                	addi	t1,t1,16
   10c84:	8ad754e3          	bge	a4,a3,1052c <_vfprintf_r+0x242>
   10c88:	0a10                	addi	a2,sp,272
   10c8a:	85ca                	mv	a1,s2
   10c8c:	8552                	mv	a0,s4
   10c8e:	01c070ef          	jal	ra,17caa <__sprint_r>
   10c92:	ed41                	bnez	a0,10d2a <_vfprintf_r+0xa40>
   10c94:	7792                	ld	a5,288(sp)
   10c96:	835a                	mv	t1,s6
   10c98:	b851                	j	1052c <_vfprintf_r+0x242>
   10c9a:	68f1                	lui	a7,0x1c
   10c9c:	4641                	li	a2,16
   10c9e:	11812703          	lw	a4,280(sp)
   10ca2:	4d888d93          	addi	s11,a7,1240 # 1c4d8 <zeroes.0>
   10ca6:	4ec1                	li	t4,16
   10ca8:	4f1d                	li	t5,7
   10caa:	01864663          	blt	a2,s8,10cb6 <_vfprintf_r+0x9cc>
   10cae:	a83d                	j	10cec <_vfprintf_r+0xa02>
   10cb0:	3c41                	addiw	s8,s8,-16
   10cb2:	038edd63          	bge	t4,s8,10cec <_vfprintf_r+0xa02>
   10cb6:	2705                	addiw	a4,a4,1
   10cb8:	07c1                	addi	a5,a5,16
   10cba:	01b33023          	sd	s11,0(t1)
   10cbe:	01d33423          	sd	t4,8(t1)
   10cc2:	f23e                	sd	a5,288(sp)
   10cc4:	10e12c23          	sw	a4,280(sp)
   10cc8:	0341                	addi	t1,t1,16
   10cca:	feef53e3          	bge	t5,a4,10cb0 <_vfprintf_r+0x9c6>
   10cce:	0a10                	addi	a2,sp,272
   10cd0:	85ca                	mv	a1,s2
   10cd2:	8552                	mv	a0,s4
   10cd4:	7d7060ef          	jal	ra,17caa <__sprint_r>
   10cd8:	e929                	bnez	a0,10d2a <_vfprintf_r+0xa40>
   10cda:	4ec1                	li	t4,16
   10cdc:	3c41                	addiw	s8,s8,-16
   10cde:	7792                	ld	a5,288(sp)
   10ce0:	11812703          	lw	a4,280(sp)
   10ce4:	835a                	mv	t1,s6
   10ce6:	4f1d                	li	t5,7
   10ce8:	fd8ec7e3          	blt	t4,s8,10cb6 <_vfprintf_r+0x9cc>
   10cec:	0017069b          	addiw	a3,a4,1
   10cf0:	97e2                	add	a5,a5,s8
   10cf2:	01b33023          	sd	s11,0(t1)
   10cf6:	01833423          	sd	s8,8(t1)
   10cfa:	f23e                	sd	a5,288(sp)
   10cfc:	10d12c23          	sw	a3,280(sp)
   10d00:	471d                	li	a4,7
   10d02:	0341                	addi	t1,t1,16
   10d04:	82d758e3          	bge	a4,a3,10534 <_vfprintf_r+0x24a>
   10d08:	0a10                	addi	a2,sp,272
   10d0a:	85ca                	mv	a1,s2
   10d0c:	8552                	mv	a0,s4
   10d0e:	79d060ef          	jal	ra,17caa <__sprint_r>
   10d12:	ed01                	bnez	a0,10d2a <_vfprintf_r+0xa40>
   10d14:	7792                	ld	a5,288(sp)
   10d16:	835a                	mv	t1,s6
   10d18:	81dff06f          	j	10534 <_vfprintf_r+0x24a>
   10d1c:	0a10                	addi	a2,sp,272
   10d1e:	85ca                	mv	a1,s2
   10d20:	8552                	mv	a0,s4
   10d22:	789060ef          	jal	ra,17caa <__sprint_r>
   10d26:	84050be3          	beqz	a0,1057c <_vfprintf_r+0x292>
   10d2a:	67e2                	ld	a5,24(sp)
   10d2c:	86078ae3          	beqz	a5,105a0 <_vfprintf_r+0x2b6>
   10d30:	85be                	mv	a1,a5
   10d32:	8552                	mv	a0,s4
   10d34:	057010ef          	jal	ra,1258a <_free_r>
   10d38:	b0a5                	j	105a0 <_vfprintf_r+0x2b6>
   10d3a:	4705                	li	a4,1
   10d3c:	8da6                	mv	s11,s1
   10d3e:	b6e79ae3          	bne	a5,a4,108b2 <_vfprintf_r+0x5c8>
   10d42:	47a5                	li	a5,9
   10d44:	3737e763          	bltu	a5,s3,110b2 <_vfprintf_r+0xdc8>
   10d48:	0309899b          	addiw	s3,s3,48
   10d4c:	193105a3          	sb	s3,395(sp)
   10d50:	84ee                	mv	s1,s11
   10d52:	4b85                	li	s7,1
   10d54:	18b10c93          	addi	s9,sp,395
   10d58:	b231                	j	10664 <_vfprintf_r+0x37a>
   10d5a:	68f1                	lui	a7,0x1c
   10d5c:	4641                	li	a2,16
   10d5e:	11812703          	lw	a4,280(sp)
   10d62:	4c888893          	addi	a7,a7,1224 # 1c4c8 <blanks.1>
   10d66:	4f41                	li	t5,16
   10d68:	439d                	li	t2,7
   10d6a:	00d64663          	blt	a2,a3,10d76 <_vfprintf_r+0xa8c>
   10d6e:	a0a9                	j	10db8 <_vfprintf_r+0xace>
   10d70:	36c1                	addiw	a3,a3,-16
   10d72:	04df5363          	bge	t5,a3,10db8 <_vfprintf_r+0xace>
   10d76:	2705                	addiw	a4,a4,1
   10d78:	07c1                	addi	a5,a5,16
   10d7a:	01133023          	sd	a7,0(t1)
   10d7e:	01e33423          	sd	t5,8(t1)
   10d82:	f23e                	sd	a5,288(sp)
   10d84:	10e12c23          	sw	a4,280(sp)
   10d88:	0341                	addi	t1,t1,16
   10d8a:	fee3d3e3          	bge	t2,a4,10d70 <_vfprintf_r+0xa86>
   10d8e:	0a10                	addi	a2,sp,272
   10d90:	85ca                	mv	a1,s2
   10d92:	8552                	mv	a0,s4
   10d94:	e0c6                	sd	a7,64(sp)
   10d96:	fc36                	sd	a3,56(sp)
   10d98:	f816                	sd	t0,48(sp)
   10d9a:	711060ef          	jal	ra,17caa <__sprint_r>
   10d9e:	f551                	bnez	a0,10d2a <_vfprintf_r+0xa40>
   10da0:	76e2                	ld	a3,56(sp)
   10da2:	4f41                	li	t5,16
   10da4:	7792                	ld	a5,288(sp)
   10da6:	36c1                	addiw	a3,a3,-16
   10da8:	11812703          	lw	a4,280(sp)
   10dac:	6886                	ld	a7,64(sp)
   10dae:	72c2                	ld	t0,48(sp)
   10db0:	835a                	mv	t1,s6
   10db2:	439d                	li	t2,7
   10db4:	fcdf41e3          	blt	t5,a3,10d76 <_vfprintf_r+0xa8c>
   10db8:	2705                	addiw	a4,a4,1
   10dba:	97b6                	add	a5,a5,a3
   10dbc:	00d33423          	sd	a3,8(t1)
   10dc0:	01133023          	sd	a7,0(t1)
   10dc4:	0007069b          	sext.w	a3,a4
   10dc8:	10e12c23          	sw	a4,280(sp)
   10dcc:	f23e                	sd	a5,288(sp)
   10dce:	471d                	li	a4,7
   10dd0:	0341                	addi	t1,t1,16
   10dd2:	eed75d63          	bge	a4,a3,104cc <_vfprintf_r+0x1e2>
   10dd6:	0a10                	addi	a2,sp,272
   10dd8:	85ca                	mv	a1,s2
   10dda:	8552                	mv	a0,s4
   10ddc:	f816                	sd	t0,48(sp)
   10dde:	6cd060ef          	jal	ra,17caa <__sprint_r>
   10de2:	f521                	bnez	a0,10d2a <_vfprintf_r+0xa40>
   10de4:	7792                	ld	a5,288(sp)
   10de6:	72c2                	ld	t0,48(sp)
   10de8:	835a                	mv	t1,s6
   10dea:	ee2ff06f          	j	104cc <_vfprintf_r+0x1e2>
   10dee:	0a10                	addi	a2,sp,272
   10df0:	85ca                	mv	a1,s2
   10df2:	8552                	mv	a0,s4
   10df4:	6b7060ef          	jal	ra,17caa <__sprint_r>
   10df8:	f90d                	bnez	a0,10d2a <_vfprintf_r+0xa40>
   10dfa:	7792                	ld	a5,288(sp)
   10dfc:	835a                	mv	t1,s6
   10dfe:	f26ff06f          	j	10524 <_vfprintf_r+0x23a>
   10e02:	68f1                	lui	a7,0x1c
   10e04:	46c1                	li	a3,16
   10e06:	11812703          	lw	a4,280(sp)
   10e0a:	4c888893          	addi	a7,a7,1224 # 1c4c8 <blanks.1>
   10e0e:	4bc1                	li	s7,16
   10e10:	4c1d                	li	s8,7
   10e12:	0096c663          	blt	a3,s1,10e1e <_vfprintf_r+0xb34>
   10e16:	a081                	j	10e56 <_vfprintf_r+0xb6c>
   10e18:	34c1                	addiw	s1,s1,-16
   10e1a:	029bde63          	bge	s7,s1,10e56 <_vfprintf_r+0xb6c>
   10e1e:	2705                	addiw	a4,a4,1
   10e20:	07c1                	addi	a5,a5,16
   10e22:	01133023          	sd	a7,0(t1)
   10e26:	01733423          	sd	s7,8(t1)
   10e2a:	f23e                	sd	a5,288(sp)
   10e2c:	10e12c23          	sw	a4,280(sp)
   10e30:	0341                	addi	t1,t1,16
   10e32:	feec53e3          	bge	s8,a4,10e18 <_vfprintf_r+0xb2e>
   10e36:	0a10                	addi	a2,sp,272
   10e38:	85ca                	mv	a1,s2
   10e3a:	8552                	mv	a0,s4
   10e3c:	f846                	sd	a7,48(sp)
   10e3e:	66d060ef          	jal	ra,17caa <__sprint_r>
   10e42:	ee0514e3          	bnez	a0,10d2a <_vfprintf_r+0xa40>
   10e46:	34c1                	addiw	s1,s1,-16
   10e48:	7792                	ld	a5,288(sp)
   10e4a:	11812703          	lw	a4,280(sp)
   10e4e:	78c2                	ld	a7,48(sp)
   10e50:	835a                	mv	t1,s6
   10e52:	fc9bc6e3          	blt	s7,s1,10e1e <_vfprintf_r+0xb34>
   10e56:	0017069b          	addiw	a3,a4,1
   10e5a:	97a6                	add	a5,a5,s1
   10e5c:	01133023          	sd	a7,0(t1)
   10e60:	00933423          	sd	s1,8(t1)
   10e64:	f23e                	sd	a5,288(sp)
   10e66:	10d12c23          	sw	a3,280(sp)
   10e6a:	471d                	li	a4,7
   10e6c:	eed75f63          	bge	a4,a3,1056a <_vfprintf_r+0x280>
   10e70:	0a10                	addi	a2,sp,272
   10e72:	85ca                	mv	a1,s2
   10e74:	8552                	mv	a0,s4
   10e76:	635060ef          	jal	ra,17caa <__sprint_r>
   10e7a:	ea0518e3          	bnez	a0,10d2a <_vfprintf_r+0xa40>
   10e7e:	7792                	ld	a5,288(sp)
   10e80:	eeaff06f          	j	1056a <_vfprintf_r+0x280>
   10e84:	562e                	lw	a2,232(sp)
   10e86:	50c05a63          	blez	a2,1139a <_vfprintf_r+0x10b0>
   10e8a:	6726                	ld	a4,72(sp)
   10e8c:	7682                	ld	a3,32(sp)
   10e8e:	00070b9b          	sext.w	s7,a4
   10e92:	2ae6c063          	blt	a3,a4,11132 <_vfprintf_r+0xe48>
   10e96:	03705263          	blez	s7,10eba <_vfprintf_r+0xbd0>
   10e9a:	11812703          	lw	a4,280(sp)
   10e9e:	97de                	add	a5,a5,s7
   10ea0:	01933023          	sd	s9,0(t1)
   10ea4:	0017069b          	addiw	a3,a4,1
   10ea8:	01733423          	sd	s7,8(t1)
   10eac:	f23e                	sd	a5,288(sp)
   10eae:	10d12c23          	sw	a3,280(sp)
   10eb2:	471d                	li	a4,7
   10eb4:	0341                	addi	t1,t1,16
   10eb6:	0ad74ae3          	blt	a4,a3,1176a <_vfprintf_r+0x1480>
   10eba:	fffbc713          	not	a4,s7
   10ebe:	977d                	srai	a4,a4,0x3f
   10ec0:	00ebfbb3          	and	s7,s7,a4
   10ec4:	6726                	ld	a4,72(sp)
   10ec6:	41770bbb          	subw	s7,a4,s7
   10eca:	31704863          	bgtz	s7,111da <_vfprintf_r+0xef0>
   10ece:	66a6                	ld	a3,72(sp)
   10ed0:	4004f713          	andi	a4,s1,1024
   10ed4:	00dc8c33          	add	s8,s9,a3
   10ed8:	70071f63          	bnez	a4,115f6 <_vfprintf_r+0x130c>
   10edc:	572e                	lw	a4,232(sp)
   10ede:	7682                	ld	a3,32(sp)
   10ee0:	00d74663          	blt	a4,a3,10eec <_vfprintf_r+0xc02>
   10ee4:	0014f693          	andi	a3,s1,1
   10ee8:	08068ee3          	beqz	a3,11784 <_vfprintf_r+0x149a>
   10eec:	7626                	ld	a2,104(sp)
   10eee:	11812683          	lw	a3,280(sp)
   10ef2:	75c6                	ld	a1,112(sp)
   10ef4:	97b2                	add	a5,a5,a2
   10ef6:	2685                	addiw	a3,a3,1
   10ef8:	00c33423          	sd	a2,8(t1)
   10efc:	00b33023          	sd	a1,0(t1)
   10f00:	0006861b          	sext.w	a2,a3
   10f04:	10d12c23          	sw	a3,280(sp)
   10f08:	f23e                	sd	a5,288(sp)
   10f0a:	469d                	li	a3,7
   10f0c:	0341                	addi	t1,t1,16
   10f0e:	3ac6c3e3          	blt	a3,a2,11ab4 <_vfprintf_r+0x17ca>
   10f12:	7682                	ld	a3,32(sp)
   10f14:	00dc8833          	add	a6,s9,a3
   10f18:	41880bb3          	sub	s7,a6,s8
   10f1c:	9e99                	subw	a3,a3,a4
   10f1e:	000b861b          	sext.w	a2,s7
   10f22:	00c6d363          	bge	a3,a2,10f28 <_vfprintf_r+0xc3e>
   10f26:	8bb6                	mv	s7,a3
   10f28:	2b81                	sext.w	s7,s7
   10f2a:	03705263          	blez	s7,10f4e <_vfprintf_r+0xc64>
   10f2e:	11812703          	lw	a4,280(sp)
   10f32:	97de                	add	a5,a5,s7
   10f34:	01833023          	sd	s8,0(t1)
   10f38:	0017061b          	addiw	a2,a4,1
   10f3c:	01733423          	sd	s7,8(t1)
   10f40:	f23e                	sd	a5,288(sp)
   10f42:	10c12c23          	sw	a2,280(sp)
   10f46:	471d                	li	a4,7
   10f48:	0341                	addi	t1,t1,16
   10f4a:	38c74fe3          	blt	a4,a2,11ae8 <_vfprintf_r+0x17fe>
   10f4e:	fffbc713          	not	a4,s7
   10f52:	977d                	srai	a4,a4,0x3f
   10f54:	00ebfbb3          	and	s7,s7,a4
   10f58:	41768bbb          	subw	s7,a3,s7
   10f5c:	e1705163          	blez	s7,1055e <_vfprintf_r+0x274>
   10f60:	68f1                	lui	a7,0x1c
   10f62:	46c1                	li	a3,16
   10f64:	11812703          	lw	a4,280(sp)
   10f68:	4d888d93          	addi	s11,a7,1240 # 1c4d8 <zeroes.0>
   10f6c:	4cc1                	li	s9,16
   10f6e:	4c1d                	li	s8,7
   10f70:	0176c663          	blt	a3,s7,10f7c <_vfprintf_r+0xc92>
   10f74:	a955                	j	11428 <_vfprintf_r+0x113e>
   10f76:	3bc1                	addiw	s7,s7,-16
   10f78:	4b7cd863          	bge	s9,s7,11428 <_vfprintf_r+0x113e>
   10f7c:	2705                	addiw	a4,a4,1
   10f7e:	07c1                	addi	a5,a5,16
   10f80:	01b33023          	sd	s11,0(t1)
   10f84:	01933423          	sd	s9,8(t1)
   10f88:	f23e                	sd	a5,288(sp)
   10f8a:	10e12c23          	sw	a4,280(sp)
   10f8e:	0341                	addi	t1,t1,16
   10f90:	feec53e3          	bge	s8,a4,10f76 <_vfprintf_r+0xc8c>
   10f94:	0a10                	addi	a2,sp,272
   10f96:	85ca                	mv	a1,s2
   10f98:	8552                	mv	a0,s4
   10f9a:	511060ef          	jal	ra,17caa <__sprint_r>
   10f9e:	d80516e3          	bnez	a0,10d2a <_vfprintf_r+0xa40>
   10fa2:	7792                	ld	a5,288(sp)
   10fa4:	11812703          	lw	a4,280(sp)
   10fa8:	835a                	mv	t1,s6
   10faa:	b7f1                	j	10f76 <_vfprintf_r+0xc8c>
   10fac:	0014f593          	andi	a1,s1,1
   10fb0:	800592e3          	bnez	a1,107b4 <_vfprintf_r+0x4ca>
   10fb4:	00c33423          	sd	a2,8(t1)
   10fb8:	f26a                	sd	s10,288(sp)
   10fba:	11712c23          	sw	s7,280(sp)
   10fbe:	469d                	li	a3,7
   10fc0:	8576dde3          	bge	a3,s7,1081a <_vfprintf_r+0x530>
   10fc4:	0a10                	addi	a2,sp,272
   10fc6:	85ca                	mv	a1,s2
   10fc8:	8552                	mv	a0,s4
   10fca:	4e1060ef          	jal	ra,17caa <__sprint_r>
   10fce:	d4051ee3          	bnez	a0,10d2a <_vfprintf_r+0xa40>
   10fd2:	7d12                	ld	s10,288(sp)
   10fd4:	11812b83          	lw	s7,280(sp)
   10fd8:	8c5a                	mv	s8,s6
   10fda:	841ff06f          	j	1081a <_vfprintf_r+0x530>
   10fde:	82d05ee3          	blez	a3,1081a <_vfprintf_r+0x530>
   10fe2:	68f1                	lui	a7,0x1c
   10fe4:	4641                	li	a2,16
   10fe6:	4d888d93          	addi	s11,a7,1240 # 1c4d8 <zeroes.0>
   10fea:	4841                	li	a6,16
   10fec:	4c9d                	li	s9,7
   10fee:	00d64663          	blt	a2,a3,10ffa <_vfprintf_r+0xd10>
   10ff2:	a159                	j	11478 <_vfprintf_r+0x118e>
   10ff4:	36c1                	addiw	a3,a3,-16
   10ff6:	48d85163          	bge	a6,a3,11478 <_vfprintf_r+0x118e>
   10ffa:	2b85                	addiw	s7,s7,1
   10ffc:	0d41                	addi	s10,s10,16
   10ffe:	01bc3023          	sd	s11,0(s8)
   11002:	010c3423          	sd	a6,8(s8)
   11006:	f26a                	sd	s10,288(sp)
   11008:	11712c23          	sw	s7,280(sp)
   1100c:	0c41                	addi	s8,s8,16
   1100e:	ff7cd3e3          	bge	s9,s7,10ff4 <_vfprintf_r+0xd0a>
   11012:	0a10                	addi	a2,sp,272
   11014:	85ca                	mv	a1,s2
   11016:	8552                	mv	a0,s4
   11018:	f836                	sd	a3,48(sp)
   1101a:	491060ef          	jal	ra,17caa <__sprint_r>
   1101e:	d00516e3          	bnez	a0,10d2a <_vfprintf_r+0xa40>
   11022:	7d12                	ld	s10,288(sp)
   11024:	11812b83          	lw	s7,280(sp)
   11028:	76c2                	ld	a3,48(sp)
   1102a:	8c5a                	mv	s8,s6
   1102c:	4841                	li	a6,16
   1102e:	b7d9                	j	10ff4 <_vfprintf_r+0xd0a>
   11030:	010df793          	andi	a5,s11,16
   11034:	e3b9                	bnez	a5,1107a <_vfprintf_r+0xd90>
   11036:	66c2                	ld	a3,16(sp)
   11038:	040df793          	andi	a5,s11,64
   1103c:	0006a983          	lw	s3,0(a3)
   11040:	4c078363          	beqz	a5,11506 <_vfprintf_r+0x121c>
   11044:	19c2                	slli	s3,s3,0x30
   11046:	0309d993          	srli	s3,s3,0x30
   1104a:	e83a                	sd	a4,16(sp)
   1104c:	4785                	li	a5,1
   1104e:	e58ff06f          	j	106a6 <_vfprintf_r+0x3bc>
   11052:	0014f713          	andi	a4,s1,1
   11056:	d0070463          	beqz	a4,1055e <_vfprintf_r+0x274>
   1105a:	be15                	j	10b8e <_vfprintf_r+0x8a4>
   1105c:	00044e03          	lbu	t3,0(s0)
   11060:	e83e                	sd	a5,16(sp)
   11062:	bd8ff06f          	j	1043a <_vfprintf_r+0x150>
   11066:	67a2                	ld	a5,8(sp)
   11068:	8ca2                	mv	s9,s0
   1106a:	e31c                	sd	a5,0(a4)
   1106c:	d24ff06f          	j	10590 <_vfprintf_r+0x2a6>
   11070:	67c2                	ld	a5,16(sp)
   11072:	639c                	ld	a5,0(a5)
   11074:	89be                	mv	s3,a5
   11076:	dcaff06f          	j	10640 <_vfprintf_r+0x356>
   1107a:	67c2                	ld	a5,16(sp)
   1107c:	e83a                	sd	a4,16(sp)
   1107e:	0007b983          	ld	s3,0(a5)
   11082:	4785                	li	a5,1
   11084:	e22ff06f          	j	106a6 <_vfprintf_r+0x3bc>
   11088:	67c2                	ld	a5,16(sp)
   1108a:	0007b983          	ld	s3,0(a5)
   1108e:	e0eff06f          	j	1069c <_vfprintf_r+0x3b2>
   11092:	67c2                	ld	a5,16(sp)
   11094:	ec1a                	sd	t1,24(sp)
   11096:	2388                	fld	fa0,0(a5)
   11098:	07a1                	addi	a5,a5,8
   1109a:	e83e                	sd	a5,16(sp)
   1109c:	6990a0ef          	jal	ra,1bf34 <__extenddftf2>
   110a0:	6362                	ld	t1,24(sp)
   110a2:	87aa                	mv	a5,a0
   110a4:	e70ff06f          	j	10714 <_vfprintf_r+0x42a>
   110a8:	e83a                	sd	a4,16(sp)
   110aa:	47a5                	li	a5,9
   110ac:	8da6                	mv	s11,s1
   110ae:	c937fde3          	bgeu	a5,s3,10d48 <_vfprintf_r+0xa5e>
   110b2:	18c10b93          	addi	s7,sp,396
   110b6:	400df713          	andi	a4,s11,1024
   110ba:	f002                	sd	zero,32(sp)
   110bc:	865e                	mv	a2,s7
   110be:	44a9                	li	s1,10
   110c0:	46a5                	li	a3,9
   110c2:	0ff00893          	li	a7,255
   110c6:	a039                	j	110d4 <_vfprintf_r+0xdea>
   110c8:	0299d7b3          	divu	a5,s3,s1
   110cc:	a736f4e3          	bgeu	a3,s3,10b34 <_vfprintf_r+0x84a>
   110d0:	89be                	mv	s3,a5
   110d2:	8666                	mv	a2,s9
   110d4:	7582                	ld	a1,32(sp)
   110d6:	fff60c93          	addi	s9,a2,-1
   110da:	2585                	addiw	a1,a1,1
   110dc:	f02e                	sd	a1,32(sp)
   110de:	0299f7b3          	remu	a5,s3,s1
   110e2:	0307879b          	addiw	a5,a5,48
   110e6:	fef60fa3          	sb	a5,-1(a2)
   110ea:	df79                	beqz	a4,110c8 <_vfprintf_r+0xdde>
   110ec:	7786                	ld	a5,96(sp)
   110ee:	0007c783          	lbu	a5,0(a5)
   110f2:	fcf59be3          	bne	a1,a5,110c8 <_vfprintf_r+0xdde>
   110f6:	fd1789e3          	beq	a5,a7,110c8 <_vfprintf_r+0xdde>
   110fa:	a336fde3          	bgeu	a3,s3,10b34 <_vfprintf_r+0x84a>
   110fe:	678a                	ld	a5,128(sp)
   11100:	65aa                	ld	a1,136(sp)
   11102:	f83a                	sd	a4,48(sp)
   11104:	40fc8cb3          	sub	s9,s9,a5
   11108:	863e                	mv	a2,a5
   1110a:	8566                	mv	a0,s9
   1110c:	ec1a                	sd	t1,24(sp)
   1110e:	03a050ef          	jal	ra,16148 <strncpy>
   11112:	7706                	ld	a4,96(sp)
   11114:	0299d7b3          	divu	a5,s3,s1
   11118:	6362                	ld	t1,24(sp)
   1111a:	00174603          	lbu	a2,1(a4)
   1111e:	f002                	sd	zero,32(sp)
   11120:	46a5                	li	a3,9
   11122:	00c03633          	snez	a2,a2
   11126:	9732                	add	a4,a4,a2
   11128:	f0ba                	sd	a4,96(sp)
   1112a:	0ff00893          	li	a7,255
   1112e:	7742                	ld	a4,48(sp)
   11130:	b745                	j	110d0 <_vfprintf_r+0xde6>
   11132:	00068b9b          	sext.w	s7,a3
   11136:	d77042e3          	bgtz	s7,10e9a <_vfprintf_r+0xbb0>
   1113a:	b341                	j	10eba <_vfprintf_r+0xbd0>
   1113c:	8da6                	mv	s11,s1
   1113e:	ba21                	j	10a56 <_vfprintf_r+0x76c>
   11140:	67f1                	lui	a5,0x1c
   11142:	28078793          	addi	a5,a5,640 # 1c280 <__clzdi2+0x68>
   11146:	f43e                	sd	a5,40(sp)
   11148:	66c2                	ld	a3,16(sp)
   1114a:	0204f793          	andi	a5,s1,32
   1114e:	00868713          	addi	a4,a3,8
   11152:	20078363          	beqz	a5,11358 <_vfprintf_r+0x106e>
   11156:	0006b983          	ld	s3,0(a3)
   1115a:	0014f793          	andi	a5,s1,1
   1115e:	cf81                	beqz	a5,11176 <_vfprintf_r+0xe8c>
   11160:	00098b63          	beqz	s3,11176 <_vfprintf_r+0xe8c>
   11164:	0024e493          	ori	s1,s1,2
   11168:	03000793          	li	a5,48
   1116c:	0ef10023          	sb	a5,224(sp)
   11170:	0fa100a3          	sb	s10,225(sp)
   11174:	2481                	sext.w	s1,s1
   11176:	bff4fd93          	andi	s11,s1,-1025
   1117a:	2d81                	sext.w	s11,s11
   1117c:	e83a                	sd	a4,16(sp)
   1117e:	4789                	li	a5,2
   11180:	d26ff06f          	j	106a6 <_vfprintf_r+0x3bc>
   11184:	2004e493          	ori	s1,s1,512
   11188:	00144e03          	lbu	t3,1(s0)
   1118c:	2481                	sext.w	s1,s1
   1118e:	0405                	addi	s0,s0,1
   11190:	aaaff06f          	j	1043a <_vfprintf_r+0x150>
   11194:	67f1                	lui	a5,0x1c
   11196:	29878793          	addi	a5,a5,664 # 1c298 <__clzdi2+0x80>
   1119a:	f43e                	sd	a5,40(sp)
   1119c:	b775                	j	11148 <_vfprintf_r+0xe5e>
   1119e:	0204e493          	ori	s1,s1,32
   111a2:	00144e03          	lbu	t3,1(s0)
   111a6:	2481                	sext.w	s1,s1
   111a8:	0405                	addi	s0,s0,1
   111aa:	a90ff06f          	j	1043a <_vfprintf_r+0x150>
   111ae:	0a10                	addi	a2,sp,272
   111b0:	85ca                	mv	a1,s2
   111b2:	8552                	mv	a0,s4
   111b4:	2f7060ef          	jal	ra,17caa <__sprint_r>
   111b8:	b60519e3          	bnez	a0,10d2a <_vfprintf_r+0xa40>
   111bc:	7792                	ld	a5,288(sp)
   111be:	835a                	mv	t1,s6
   111c0:	bad5                	j	10bb4 <_vfprintf_r+0x8ca>
   111c2:	4799                	li	a5,6
   111c4:	000c0b9b          	sext.w	s7,s8
   111c8:	5b87ec63          	bltu	a5,s8,11780 <_vfprintf_r+0x1496>
   111cc:	6871                	lui	a6,0x1c
   111ce:	89de                	mv	s3,s7
   111d0:	e86e                	sd	s11,16(sp)
   111d2:	2b080c93          	addi	s9,a6,688 # 1c2b0 <__clzdi2+0x98>
   111d6:	ad0ff06f          	j	104a6 <_vfprintf_r+0x1bc>
   111da:	68f1                	lui	a7,0x1c
   111dc:	46c1                	li	a3,16
   111de:	11812703          	lw	a4,280(sp)
   111e2:	4d888d93          	addi	s11,a7,1240 # 1c4d8 <zeroes.0>
   111e6:	4d41                	li	s10,16
   111e8:	4c1d                	li	s8,7
   111ea:	0176c663          	blt	a3,s7,111f6 <_vfprintf_r+0xf0c>
   111ee:	aee1                	j	115c6 <_vfprintf_r+0x12dc>
   111f0:	3bc1                	addiw	s7,s7,-16
   111f2:	3d7d5a63          	bge	s10,s7,115c6 <_vfprintf_r+0x12dc>
   111f6:	2705                	addiw	a4,a4,1
   111f8:	07c1                	addi	a5,a5,16
   111fa:	01b33023          	sd	s11,0(t1)
   111fe:	01a33423          	sd	s10,8(t1)
   11202:	f23e                	sd	a5,288(sp)
   11204:	10e12c23          	sw	a4,280(sp)
   11208:	0341                	addi	t1,t1,16
   1120a:	feec53e3          	bge	s8,a4,111f0 <_vfprintf_r+0xf06>
   1120e:	0a10                	addi	a2,sp,272
   11210:	85ca                	mv	a1,s2
   11212:	8552                	mv	a0,s4
   11214:	297060ef          	jal	ra,17caa <__sprint_r>
   11218:	b00519e3          	bnez	a0,10d2a <_vfprintf_r+0xa40>
   1121c:	7792                	ld	a5,288(sp)
   1121e:	11812703          	lw	a4,280(sp)
   11222:	835a                	mv	t1,s6
   11224:	b7f1                	j	111f0 <_vfprintf_r+0xf06>
   11226:	07800713          	li	a4,120
   1122a:	0024e793          	ori	a5,s1,2
   1122e:	03000693          	li	a3,48
   11232:	2781                	sext.w	a5,a5
   11234:	0ee100a3          	sb	a4,225(sp)
   11238:	0ed10023          	sb	a3,224(sp)
   1123c:	06300713          	li	a4,99
   11240:	f53e                	sd	a5,168(sp)
   11242:	ec02                	sd	zero,24(sp)
   11244:	12810c93          	addi	s9,sp,296
   11248:	6b874a63          	blt	a4,s8,118fc <_vfprintf_r+0x1612>
   1124c:	69b2                	ld	s3,264(sp)
   1124e:	fdfd7793          	andi	a5,s10,-33
   11252:	1024e493          	ori	s1,s1,258
   11256:	ecbe                	sd	a5,88(sp)
   11258:	e582                	sd	zero,200(sp)
   1125a:	6b92                	ld	s7,256(sp)
   1125c:	2481                	sext.w	s1,s1
   1125e:	6609ca63          	bltz	s3,118d2 <_vfprintf_r+0x15e8>
   11262:	06100793          	li	a5,97
   11266:	1efd0ce3          	beq	s10,a5,11c5e <_vfprintf_r+0x1974>
   1126a:	fbfd079b          	addiw	a5,s10,-65
   1126e:	0007869b          	sext.w	a3,a5
   11272:	02500713          	li	a4,37
   11276:	00d76c63          	bltu	a4,a3,1128e <_vfprintf_r+0xfa4>
   1127a:	02079713          	slli	a4,a5,0x20
   1127e:	01e75793          	srli	a5,a4,0x1e
   11282:	6771                	lui	a4,0x1c
   11284:	42c70713          	addi	a4,a4,1068 # 1c42c <__clzdi2+0x214>
   11288:	97ba                	add	a5,a5,a4
   1128a:	439c                	lw	a5,0(a5)
   1128c:	8782                	jr	a5
   1128e:	8de2                	mv	s11,s8
   11290:	4689                	li	a3,2
   11292:	11bc                	addi	a5,sp,232
   11294:	876e                	mv	a4,s11
   11296:	0f810893          	addi	a7,sp,248
   1129a:	0ec10813          	addi	a6,sp,236
   1129e:	85de                	mv	a1,s7
   112a0:	864e                	mv	a2,s3
   112a2:	8552                	mv	a0,s4
   112a4:	f01a                	sd	t1,32(sp)
   112a6:	03d020ef          	jal	ra,13ae2 <_ldtoa_r>
   112aa:	6766                	ld	a4,88(sp)
   112ac:	04700793          	li	a5,71
   112b0:	7302                	ld	t1,32(sp)
   112b2:	8caa                	mv	s9,a0
   112b4:	7cf70463          	beq	a4,a5,11a7c <_vfprintf_r+0x1792>
   112b8:	04600793          	li	a5,70
   112bc:	01b508b3          	add	a7,a0,s11
   112c0:	00f71a63          	bne	a4,a5,112d4 <_vfprintf_r+0xfea>
   112c4:	00054703          	lbu	a4,0(a0)
   112c8:	03000793          	li	a5,48
   112cc:	64f70463          	beq	a4,a5,11914 <_vfprintf_r+0x162a>
   112d0:	572e                	lw	a4,232(sp)
   112d2:	98ba                	add	a7,a7,a4
   112d4:	4681                	li	a3,0
   112d6:	4601                	li	a2,0
   112d8:	855e                	mv	a0,s7
   112da:	85ce                	mv	a1,s3
   112dc:	f846                	sd	a7,48(sp)
   112de:	f01a                	sd	t1,32(sp)
   112e0:	2cf090ef          	jal	ra,1adae <__eqtf2>
   112e4:	78c2                	ld	a7,48(sp)
   112e6:	7302                	ld	t1,32(sp)
   112e8:	86c6                	mv	a3,a7
   112ea:	e929                	bnez	a0,1133c <_vfprintf_r+0x1052>
   112ec:	419687bb          	subw	a5,a3,s9
   112f0:	f03e                	sd	a5,32(sp)
   112f2:	572e                	lw	a4,232(sp)
   112f4:	04700793          	li	a5,71
   112f8:	e4ba                	sd	a4,72(sp)
   112fa:	6766                	ld	a4,88(sp)
   112fc:	24f70963          	beq	a4,a5,1154e <_vfprintf_r+0x1264>
   11300:	6766                	ld	a4,88(sp)
   11302:	04600793          	li	a5,70
   11306:	4af71163          	bne	a4,a5,117a8 <_vfprintf_r+0x14be>
   1130a:	77aa                	ld	a5,168(sp)
   1130c:	6726                	ld	a4,72(sp)
   1130e:	8b85                	andi	a5,a5,1
   11310:	00fc67b3          	or	a5,s8,a5
   11314:	20e055e3          	blez	a4,11d1e <_vfprintf_r+0x1a34>
   11318:	1e079ae3          	bnez	a5,11d0c <_vfprintf_r+0x1a22>
   1131c:	6ba6                	ld	s7,72(sp)
   1131e:	06600d13          	li	s10,102
   11322:	77aa                	ld	a5,168(sp)
   11324:	4007f793          	andi	a5,a5,1024
   11328:	16079be3          	bnez	a5,11c9e <_vfprintf_r+0x19b4>
   1132c:	fffbc993          	not	s3,s7
   11330:	43f9d993          	srai	s3,s3,0x3f
   11334:	013bf9b3          	and	s3,s7,s3
   11338:	2981                	sext.w	s3,s3
   1133a:	aca1                	j	11592 <_vfprintf_r+0x12a8>
   1133c:	76ee                	ld	a3,248(sp)
   1133e:	fb16f7e3          	bgeu	a3,a7,112ec <_vfprintf_r+0x1002>
   11342:	03000713          	li	a4,48
   11346:	00168793          	addi	a5,a3,1
   1134a:	fdbe                	sd	a5,248(sp)
   1134c:	00e68023          	sb	a4,0(a3)
   11350:	76ee                	ld	a3,248(sp)
   11352:	ff16eae3          	bltu	a3,a7,11346 <_vfprintf_r+0x105c>
   11356:	bf59                	j	112ec <_vfprintf_r+0x1002>
   11358:	0104f793          	andi	a5,s1,16
   1135c:	c3c5                	beqz	a5,113fc <_vfprintf_r+0x1112>
   1135e:	67c2                	ld	a5,16(sp)
   11360:	0007b983          	ld	s3,0(a5)
   11364:	bbdd                	j	1115a <_vfprintf_r+0xe70>
   11366:	0a10                	addi	a2,sp,272
   11368:	85ca                	mv	a1,s2
   1136a:	8552                	mv	a0,s4
   1136c:	13f060ef          	jal	ra,17caa <__sprint_r>
   11370:	9a051de3          	bnez	a0,10d2a <_vfprintf_r+0xa40>
   11374:	7d12                	ld	s10,288(sp)
   11376:	11812b83          	lw	s7,280(sp)
   1137a:	8c5a                	mv	s8,s6
   1137c:	c4aff06f          	j	107c6 <_vfprintf_r+0x4dc>
   11380:	0a10                	addi	a2,sp,272
   11382:	85ca                	mv	a1,s2
   11384:	8552                	mv	a0,s4
   11386:	125060ef          	jal	ra,17caa <__sprint_r>
   1138a:	9a0510e3          	bnez	a0,10d2a <_vfprintf_r+0xa40>
   1138e:	7d12                	ld	s10,288(sp)
   11390:	11812b83          	lw	s7,280(sp)
   11394:	8c5a                	mv	s8,s6
   11396:	c4eff06f          	j	107e4 <_vfprintf_r+0x4fa>
   1139a:	11812703          	lw	a4,280(sp)
   1139e:	66f1                	lui	a3,0x1c
   113a0:	2b868693          	addi	a3,a3,696 # 1c2b8 <__clzdi2+0xa0>
   113a4:	2705                	addiw	a4,a4,1
   113a6:	00d33023          	sd	a3,0(t1)
   113aa:	0785                	addi	a5,a5,1
   113ac:	4685                	li	a3,1
   113ae:	00d33423          	sd	a3,8(t1)
   113b2:	10e12c23          	sw	a4,280(sp)
   113b6:	0007069b          	sext.w	a3,a4
   113ba:	f23e                	sd	a5,288(sp)
   113bc:	471d                	li	a4,7
   113be:	0341                	addi	t1,t1,16
   113c0:	38d74663          	blt	a4,a3,1174c <_vfprintf_r+0x1462>
   113c4:	0e061a63          	bnez	a2,114b8 <_vfprintf_r+0x11ce>
   113c8:	7682                	ld	a3,32(sp)
   113ca:	0014f713          	andi	a4,s1,1
   113ce:	8f55                	or	a4,a4,a3
   113d0:	98070763          	beqz	a4,1055e <_vfprintf_r+0x274>
   113d4:	76a6                	ld	a3,104(sp)
   113d6:	11812703          	lw	a4,280(sp)
   113da:	7646                	ld	a2,112(sp)
   113dc:	97b6                	add	a5,a5,a3
   113de:	2705                	addiw	a4,a4,1
   113e0:	00d33423          	sd	a3,8(t1)
   113e4:	10e12c23          	sw	a4,280(sp)
   113e8:	0007069b          	sext.w	a3,a4
   113ec:	00c33023          	sd	a2,0(t1)
   113f0:	f23e                	sd	a5,288(sp)
   113f2:	471d                	li	a4,7
   113f4:	4ed74763          	blt	a4,a3,118e2 <_vfprintf_r+0x15f8>
   113f8:	0341                	addi	t1,t1,16
   113fa:	a0e5                	j	114e2 <_vfprintf_r+0x11f8>
   113fc:	66c2                	ld	a3,16(sp)
   113fe:	0404f793          	andi	a5,s1,64
   11402:	0006a983          	lw	s3,0(a3)
   11406:	10078a63          	beqz	a5,1151a <_vfprintf_r+0x1230>
   1140a:	19c2                	slli	s3,s3,0x30
   1140c:	0309d993          	srli	s3,s3,0x30
   11410:	b3a9                	j	1115a <_vfprintf_r+0xe70>
   11412:	0a10                	addi	a2,sp,272
   11414:	85ca                	mv	a1,s2
   11416:	8552                	mv	a0,s4
   11418:	093060ef          	jal	ra,17caa <__sprint_r>
   1141c:	900517e3          	bnez	a0,10d2a <_vfprintf_r+0xa40>
   11420:	7792                	ld	a5,288(sp)
   11422:	835a                	mv	t1,s6
   11424:	f62ff06f          	j	10b86 <_vfprintf_r+0x89c>
   11428:	0017069b          	addiw	a3,a4,1
   1142c:	8736                	mv	a4,a3
   1142e:	97de                	add	a5,a5,s7
   11430:	01b33023          	sd	s11,0(t1)
   11434:	918ff06f          	j	1054c <_vfprintf_r+0x262>
   11438:	6512                	ld	a0,256(sp)
   1143a:	65b2                	ld	a1,264(sp)
   1143c:	4601                	li	a2,0
   1143e:	4681                	li	a3,0
   11440:	2b5090ef          	jal	ra,1aef4 <__letf2>
   11444:	6362                	ld	t1,24(sp)
   11446:	66054263          	bltz	a0,11aaa <_vfprintf_r+0x17c0>
   1144a:	0df14783          	lbu	a5,223(sp)
   1144e:	04700713          	li	a4,71
   11452:	31a75863          	bge	a4,s10,11762 <_vfprintf_r+0x1478>
   11456:	6871                	lui	a6,0x1c
   11458:	26880c93          	addi	s9,a6,616 # 1c268 <__clzdi2+0x50>
   1145c:	f7f4f493          	andi	s1,s1,-129
   11460:	ec02                	sd	zero,24(sp)
   11462:	e882                	sd	zero,80(sp)
   11464:	ec82                	sd	zero,88(sp)
   11466:	e482                	sd	zero,72(sp)
   11468:	2481                	sext.w	s1,s1
   1146a:	498d                	li	s3,3
   1146c:	4b8d                	li	s7,3
   1146e:	4c01                	li	s8,0
   11470:	a0079863          	bnez	a5,10680 <_vfprintf_r+0x396>
   11474:	83cff06f          	j	104b0 <_vfprintf_r+0x1c6>
   11478:	2b85                	addiw	s7,s7,1
   1147a:	865e                	mv	a2,s7
   1147c:	9d36                	add	s10,s10,a3
   1147e:	01bc3023          	sd	s11,0(s8)
   11482:	b86ff06f          	j	10808 <_vfprintf_r+0x51e>
   11486:	8566                	mv	a0,s9
   11488:	f81a                	sd	t1,48(sp)
   1148a:	42f040ef          	jal	ra,160b8 <strlen>
   1148e:	00050b9b          	sext.w	s7,a0
   11492:	0df14783          	lbu	a5,223(sp)
   11496:	fffbc993          	not	s3,s7
   1149a:	43f9d993          	srai	s3,s3,0x3f
   1149e:	e86e                	sd	s11,16(sp)
   114a0:	ec02                	sd	zero,24(sp)
   114a2:	e882                	sd	zero,80(sp)
   114a4:	ec82                	sd	zero,88(sp)
   114a6:	e482                	sd	zero,72(sp)
   114a8:	7342                	ld	t1,48(sp)
   114aa:	0179f9b3          	and	s3,s3,s7
   114ae:	4c01                	li	s8,0
   114b0:	9c079863          	bnez	a5,10680 <_vfprintf_r+0x396>
   114b4:	ffdfe06f          	j	104b0 <_vfprintf_r+0x1c6>
   114b8:	76a6                	ld	a3,104(sp)
   114ba:	11812703          	lw	a4,280(sp)
   114be:	75c6                	ld	a1,112(sp)
   114c0:	97b6                	add	a5,a5,a3
   114c2:	2705                	addiw	a4,a4,1
   114c4:	00d33423          	sd	a3,8(t1)
   114c8:	00b33023          	sd	a1,0(t1)
   114cc:	0007069b          	sext.w	a3,a4
   114d0:	10e12c23          	sw	a4,280(sp)
   114d4:	f23e                	sd	a5,288(sp)
   114d6:	471d                	li	a4,7
   114d8:	0341                	addi	t1,t1,16
   114da:	40d74463          	blt	a4,a3,118e2 <_vfprintf_r+0x15f8>
   114de:	62064863          	bltz	a2,11b0e <_vfprintf_r+0x1824>
   114e2:	7702                	ld	a4,32(sp)
   114e4:	0016861b          	addiw	a2,a3,1
   114e8:	01933023          	sd	s9,0(t1)
   114ec:	97ba                	add	a5,a5,a4
   114ee:	00e33423          	sd	a4,8(t1)
   114f2:	f23e                	sd	a5,288(sp)
   114f4:	10c12c23          	sw	a2,280(sp)
   114f8:	471d                	li	a4,7
   114fa:	00c74463          	blt	a4,a2,11502 <_vfprintf_r+0x1218>
   114fe:	85eff06f          	j	1055c <_vfprintf_r+0x272>
   11502:	b3cff06f          	j	1083e <_vfprintf_r+0x554>
   11506:	200df793          	andi	a5,s11,512
   1150a:	38078f63          	beqz	a5,118a8 <_vfprintf_r+0x15be>
   1150e:	0ff9f993          	zext.b	s3,s3
   11512:	e83a                	sd	a4,16(sp)
   11514:	4785                	li	a5,1
   11516:	990ff06f          	j	106a6 <_vfprintf_r+0x3bc>
   1151a:	2004f793          	andi	a5,s1,512
   1151e:	38078163          	beqz	a5,118a0 <_vfprintf_r+0x15b6>
   11522:	0ff9f993          	zext.b	s3,s3
   11526:	b915                	j	1115a <_vfprintf_r+0xe70>
   11528:	2004f793          	andi	a5,s1,512
   1152c:	36078563          	beqz	a5,11896 <_vfprintf_r+0x15ac>
   11530:	0ff9f993          	zext.b	s3,s3
   11534:	968ff06f          	j	1069c <_vfprintf_r+0x3b2>
   11538:	2004f793          	andi	a5,s1,512
   1153c:	34078a63          	beqz	a5,11890 <_vfprintf_r+0x15a6>
   11540:	0189999b          	slliw	s3,s3,0x18
   11544:	4189d99b          	sraiw	s3,s3,0x18
   11548:	87ce                	mv	a5,s3
   1154a:	8f6ff06f          	j	10640 <_vfprintf_r+0x356>
   1154e:	6726                	ld	a4,72(sp)
   11550:	57f5                	li	a5,-3
   11552:	24f74763          	blt	a4,a5,117a0 <_vfprintf_r+0x14b6>
   11556:	24ec4563          	blt	s8,a4,117a0 <_vfprintf_r+0x14b6>
   1155a:	7782                	ld	a5,32(sp)
   1155c:	6726                	ld	a4,72(sp)
   1155e:	60f74263          	blt	a4,a5,11b62 <_vfprintf_r+0x1878>
   11562:	77aa                	ld	a5,168(sp)
   11564:	6726                	ld	a4,72(sp)
   11566:	8b85                	andi	a5,a5,1
   11568:	8bba                	mv	s7,a4
   1156a:	c781                	beqz	a5,11572 <_vfprintf_r+0x1288>
   1156c:	77a6                	ld	a5,104(sp)
   1156e:	00e78bbb          	addw	s7,a5,a4
   11572:	77aa                	ld	a5,168(sp)
   11574:	4007f793          	andi	a5,a5,1024
   11578:	c781                	beqz	a5,11580 <_vfprintf_r+0x1296>
   1157a:	67a6                	ld	a5,72(sp)
   1157c:	70f04f63          	bgtz	a5,11c9a <_vfprintf_r+0x19b0>
   11580:	fffbc993          	not	s3,s7
   11584:	43f9d993          	srai	s3,s3,0x3f
   11588:	013bf9b3          	and	s3,s7,s3
   1158c:	2981                	sext.w	s3,s3
   1158e:	06700d13          	li	s10,103
   11592:	e882                	sd	zero,80(sp)
   11594:	ec82                	sd	zero,88(sp)
   11596:	67ae                	ld	a5,200(sp)
   11598:	4c078a63          	beqz	a5,11a6c <_vfprintf_r+0x1782>
   1159c:	02d00793          	li	a5,45
   115a0:	0cf10fa3          	sb	a5,223(sp)
   115a4:	4c01                	li	s8,0
   115a6:	2985                	addiw	s3,s3,1
   115a8:	f09fe06f          	j	104b0 <_vfprintf_r+0x1c6>
   115ac:	67b2                	ld	a5,264(sp)
   115ae:	3007cb63          	bltz	a5,118c4 <_vfprintf_r+0x15da>
   115b2:	0df14783          	lbu	a5,223(sp)
   115b6:	04700713          	li	a4,71
   115ba:	55a75663          	bge	a4,s10,11b06 <_vfprintf_r+0x181c>
   115be:	6871                	lui	a6,0x1c
   115c0:	27880c93          	addi	s9,a6,632 # 1c278 <__clzdi2+0x60>
   115c4:	bd61                	j	1145c <_vfprintf_r+0x1172>
   115c6:	0017069b          	addiw	a3,a4,1
   115ca:	97de                	add	a5,a5,s7
   115cc:	01b33023          	sd	s11,0(t1)
   115d0:	01733423          	sd	s7,8(t1)
   115d4:	f23e                	sd	a5,288(sp)
   115d6:	10d12c23          	sw	a3,280(sp)
   115da:	471d                	li	a4,7
   115dc:	0341                	addi	t1,t1,16
   115de:	8ed758e3          	bge	a4,a3,10ece <_vfprintf_r+0xbe4>
   115e2:	0a10                	addi	a2,sp,272
   115e4:	85ca                	mv	a1,s2
   115e6:	8552                	mv	a0,s4
   115e8:	6c2060ef          	jal	ra,17caa <__sprint_r>
   115ec:	f2051f63          	bnez	a0,10d2a <_vfprintf_r+0xa40>
   115f0:	7792                	ld	a5,288(sp)
   115f2:	835a                	mv	t1,s6
   115f4:	b8e9                	j	10ece <_vfprintf_r+0xbe4>
   115f6:	7702                	ld	a4,32(sp)
   115f8:	6ef1                	lui	t4,0x1c
   115fa:	4b9d                	li	s7,7
   115fc:	9766                	add	a4,a4,s9
   115fe:	fc3a                	sd	a4,56(sp)
   11600:	6766                	ld	a4,88(sp)
   11602:	4dc1                	li	s11,16
   11604:	4d8e8d13          	addi	s10,t4,1240 # 1c4d8 <zeroes.0>
   11608:	cb49                	beqz	a4,1169a <_vfprintf_r+0x13b0>
   1160a:	6746                	ld	a4,80(sp)
   1160c:	eb51                	bnez	a4,116a0 <_vfprintf_r+0x13b6>
   1160e:	7706                	ld	a4,96(sp)
   11610:	177d                	addi	a4,a4,-1
   11612:	f0ba                	sd	a4,96(sp)
   11614:	6766                	ld	a4,88(sp)
   11616:	377d                	addiw	a4,a4,-1
   11618:	ecba                	sd	a4,88(sp)
   1161a:	668a                	ld	a3,128(sp)
   1161c:	11812703          	lw	a4,280(sp)
   11620:	662a                	ld	a2,136(sp)
   11622:	97b6                	add	a5,a5,a3
   11624:	2705                	addiw	a4,a4,1
   11626:	00d33423          	sd	a3,8(t1)
   1162a:	00c33023          	sd	a2,0(t1)
   1162e:	f23e                	sd	a5,288(sp)
   11630:	0007069b          	sext.w	a3,a4
   11634:	10e12c23          	sw	a4,280(sp)
   11638:	0341                	addi	t1,t1,16
   1163a:	0cdbce63          	blt	s7,a3,11716 <_vfprintf_r+0x142c>
   1163e:	7706                	ld	a4,96(sp)
   11640:	00074603          	lbu	a2,0(a4)
   11644:	7762                	ld	a4,56(sp)
   11646:	418706b3          	sub	a3,a4,s8
   1164a:	0006859b          	sext.w	a1,a3
   1164e:	0006071b          	sext.w	a4,a2
   11652:	00b65363          	bge	a2,a1,11658 <_vfprintf_r+0x136e>
   11656:	86ba                	mv	a3,a4
   11658:	2681                	sext.w	a3,a3
   1165a:	02d05663          	blez	a3,11686 <_vfprintf_r+0x139c>
   1165e:	11812703          	lw	a4,280(sp)
   11662:	97b6                	add	a5,a5,a3
   11664:	01833023          	sd	s8,0(t1)
   11668:	0017061b          	addiw	a2,a4,1
   1166c:	00d33423          	sd	a3,8(t1)
   11670:	f23e                	sd	a5,288(sp)
   11672:	10c12c23          	sw	a2,280(sp)
   11676:	0acbca63          	blt	s7,a2,1172a <_vfprintf_r+0x1440>
   1167a:	7706                	ld	a4,96(sp)
   1167c:	0341                	addi	t1,t1,16
   1167e:	00074603          	lbu	a2,0(a4)
   11682:	0006071b          	sext.w	a4,a2
   11686:	fff6c593          	not	a1,a3
   1168a:	95fd                	srai	a1,a1,0x3f
   1168c:	8eed                	and	a3,a3,a1
   1168e:	9f15                	subw	a4,a4,a3
   11690:	00e04c63          	bgtz	a4,116a8 <_vfprintf_r+0x13be>
   11694:	9c32                	add	s8,s8,a2
   11696:	6766                	ld	a4,88(sp)
   11698:	fb2d                	bnez	a4,1160a <_vfprintf_r+0x1320>
   1169a:	6746                	ld	a4,80(sp)
   1169c:	3c070163          	beqz	a4,11a5e <_vfprintf_r+0x1774>
   116a0:	6746                	ld	a4,80(sp)
   116a2:	377d                	addiw	a4,a4,-1
   116a4:	e8ba                	sd	a4,80(sp)
   116a6:	bf95                	j	1161a <_vfprintf_r+0x1330>
   116a8:	11812683          	lw	a3,280(sp)
   116ac:	00edc663          	blt	s11,a4,116b8 <_vfprintf_r+0x13ce>
   116b0:	a081                	j	116f0 <_vfprintf_r+0x1406>
   116b2:	3741                	addiw	a4,a4,-16
   116b4:	02edde63          	bge	s11,a4,116f0 <_vfprintf_r+0x1406>
   116b8:	2685                	addiw	a3,a3,1
   116ba:	07c1                	addi	a5,a5,16
   116bc:	01a33023          	sd	s10,0(t1)
   116c0:	01b33423          	sd	s11,8(t1)
   116c4:	f23e                	sd	a5,288(sp)
   116c6:	10d12c23          	sw	a3,280(sp)
   116ca:	0341                	addi	t1,t1,16
   116cc:	fedbd3e3          	bge	s7,a3,116b2 <_vfprintf_r+0x13c8>
   116d0:	0a10                	addi	a2,sp,272
   116d2:	85ca                	mv	a1,s2
   116d4:	8552                	mv	a0,s4
   116d6:	f83a                	sd	a4,48(sp)
   116d8:	5d2060ef          	jal	ra,17caa <__sprint_r>
   116dc:	e4051763          	bnez	a0,10d2a <_vfprintf_r+0xa40>
   116e0:	7742                	ld	a4,48(sp)
   116e2:	7792                	ld	a5,288(sp)
   116e4:	11812683          	lw	a3,280(sp)
   116e8:	3741                	addiw	a4,a4,-16
   116ea:	835a                	mv	t1,s6
   116ec:	fcedc6e3          	blt	s11,a4,116b8 <_vfprintf_r+0x13ce>
   116f0:	2685                	addiw	a3,a3,1
   116f2:	97ba                	add	a5,a5,a4
   116f4:	00e33423          	sd	a4,8(t1)
   116f8:	01a33023          	sd	s10,0(t1)
   116fc:	f23e                	sd	a5,288(sp)
   116fe:	0006871b          	sext.w	a4,a3
   11702:	10d12c23          	sw	a3,280(sp)
   11706:	38ebc463          	blt	s7,a4,11a8e <_vfprintf_r+0x17a4>
   1170a:	7706                	ld	a4,96(sp)
   1170c:	0341                	addi	t1,t1,16
   1170e:	00074603          	lbu	a2,0(a4)
   11712:	9c32                	add	s8,s8,a2
   11714:	b749                	j	11696 <_vfprintf_r+0x13ac>
   11716:	0a10                	addi	a2,sp,272
   11718:	85ca                	mv	a1,s2
   1171a:	8552                	mv	a0,s4
   1171c:	58e060ef          	jal	ra,17caa <__sprint_r>
   11720:	e0051563          	bnez	a0,10d2a <_vfprintf_r+0xa40>
   11724:	7792                	ld	a5,288(sp)
   11726:	835a                	mv	t1,s6
   11728:	bf19                	j	1163e <_vfprintf_r+0x1354>
   1172a:	0a10                	addi	a2,sp,272
   1172c:	85ca                	mv	a1,s2
   1172e:	8552                	mv	a0,s4
   11730:	f836                	sd	a3,48(sp)
   11732:	578060ef          	jal	ra,17caa <__sprint_r>
   11736:	de051a63          	bnez	a0,10d2a <_vfprintf_r+0xa40>
   1173a:	7786                	ld	a5,96(sp)
   1173c:	76c2                	ld	a3,48(sp)
   1173e:	835a                	mv	t1,s6
   11740:	0007c603          	lbu	a2,0(a5)
   11744:	7792                	ld	a5,288(sp)
   11746:	0006071b          	sext.w	a4,a2
   1174a:	bf35                	j	11686 <_vfprintf_r+0x139c>
   1174c:	0a10                	addi	a2,sp,272
   1174e:	85ca                	mv	a1,s2
   11750:	8552                	mv	a0,s4
   11752:	558060ef          	jal	ra,17caa <__sprint_r>
   11756:	dc051a63          	bnez	a0,10d2a <_vfprintf_r+0xa40>
   1175a:	562e                	lw	a2,232(sp)
   1175c:	7792                	ld	a5,288(sp)
   1175e:	835a                	mv	t1,s6
   11760:	b195                	j	113c4 <_vfprintf_r+0x10da>
   11762:	6871                	lui	a6,0x1c
   11764:	26080c93          	addi	s9,a6,608 # 1c260 <__clzdi2+0x48>
   11768:	b9d5                	j	1145c <_vfprintf_r+0x1172>
   1176a:	0a10                	addi	a2,sp,272
   1176c:	85ca                	mv	a1,s2
   1176e:	8552                	mv	a0,s4
   11770:	53a060ef          	jal	ra,17caa <__sprint_r>
   11774:	da051b63          	bnez	a0,10d2a <_vfprintf_r+0xa40>
   11778:	7792                	ld	a5,288(sp)
   1177a:	835a                	mv	t1,s6
   1177c:	f3eff06f          	j	10eba <_vfprintf_r+0xbd0>
   11780:	4b99                	li	s7,6
   11782:	b4a9                	j	111cc <_vfprintf_r+0xee2>
   11784:	7682                	ld	a3,32(sp)
   11786:	00dc8bb3          	add	s7,s9,a3
   1178a:	418b8bb3          	sub	s7,s7,s8
   1178e:	9e99                	subw	a3,a3,a4
   11790:	000b861b          	sext.w	a2,s7
   11794:	00c6d363          	bge	a3,a2,1179a <_vfprintf_r+0x14b0>
   11798:	8bb6                	mv	s7,a3
   1179a:	2b81                	sext.w	s7,s7
   1179c:	fb2ff06f          	j	10f4e <_vfprintf_r+0xc64>
   117a0:	3d79                	addiw	s10,s10,-2
   117a2:	fdfd7793          	andi	a5,s10,-33
   117a6:	ecbe                	sd	a5,88(sp)
   117a8:	67a6                	ld	a5,72(sp)
   117aa:	65e6                	ld	a1,88(sp)
   117ac:	04100713          	li	a4,65
   117b0:	fff7869b          	addiw	a3,a5,-1
   117b4:	d5b6                	sw	a3,232(sp)
   117b6:	0ffd7793          	zext.b	a5,s10
   117ba:	4601                	li	a2,0
   117bc:	00e59663          	bne	a1,a4,117c8 <_vfprintf_r+0x14de>
   117c0:	27bd                	addiw	a5,a5,15
   117c2:	0ff7f793          	zext.b	a5,a5
   117c6:	4605                	li	a2,1
   117c8:	0ef10823          	sb	a5,240(sp)
   117cc:	02b00793          	li	a5,43
   117d0:	0006d763          	bgez	a3,117de <_vfprintf_r+0x14f4>
   117d4:	67a6                	ld	a5,72(sp)
   117d6:	4685                	li	a3,1
   117d8:	9e9d                	subw	a3,a3,a5
   117da:	02d00793          	li	a5,45
   117de:	0ef108a3          	sb	a5,241(sp)
   117e2:	47a5                	li	a5,9
   117e4:	3cd7dc63          	bge	a5,a3,11bbc <_vfprintf_r+0x18d2>
   117e8:	0ff10e93          	addi	t4,sp,255
   117ec:	8676                	mv	a2,t4
   117ee:	45a9                	li	a1,10
   117f0:	06300793          	li	a5,99
   117f4:	02b6e73b          	remw	a4,a3,a1
   117f8:	88b2                	mv	a7,a2
   117fa:	8536                	mv	a0,a3
   117fc:	167d                	addi	a2,a2,-1
   117fe:	0307071b          	addiw	a4,a4,48
   11802:	fee88fa3          	sb	a4,-1(a7)
   11806:	02b6c6bb          	divw	a3,a3,a1
   1180a:	fea7c5e3          	blt	a5,a0,117f4 <_vfprintf_r+0x150a>
   1180e:	0306869b          	addiw	a3,a3,48
   11812:	0ff6f693          	zext.b	a3,a3
   11816:	ffe88793          	addi	a5,a7,-2
   1181a:	fed60fa3          	sb	a3,-1(a2)
   1181e:	55d7f763          	bgeu	a5,t4,11d6c <_vfprintf_r+0x1a82>
   11822:	0f210713          	addi	a4,sp,242
   11826:	a019                	j	1182c <_vfprintf_r+0x1542>
   11828:	0007c683          	lbu	a3,0(a5)
   1182c:	00d70023          	sb	a3,0(a4)
   11830:	0785                	addi	a5,a5,1
   11832:	0705                	addi	a4,a4,1
   11834:	ffd79ae3          	bne	a5,t4,11828 <_vfprintf_r+0x153e>
   11838:	10110793          	addi	a5,sp,257
   1183c:	0f210713          	addi	a4,sp,242
   11840:	411787b3          	sub	a5,a5,a7
   11844:	97ba                	add	a5,a5,a4
   11846:	1998                	addi	a4,sp,240
   11848:	9f99                	subw	a5,a5,a4
   1184a:	fcbe                	sd	a5,120(sp)
   1184c:	77e6                	ld	a5,120(sp)
   1184e:	7682                	ld	a3,32(sp)
   11850:	4705                	li	a4,1
   11852:	00f68bbb          	addw	s7,a3,a5
   11856:	87de                	mv	a5,s7
   11858:	3ed75063          	bge	a4,a3,11c38 <_vfprintf_r+0x194e>
   1185c:	7726                	ld	a4,104(sp)
   1185e:	00e78bbb          	addw	s7,a5,a4
   11862:	77aa                	ld	a5,168(sp)
   11864:	fffbc993          	not	s3,s7
   11868:	43f9d993          	srai	s3,s3,0x3f
   1186c:	bff7f493          	andi	s1,a5,-1025
   11870:	2481                	sext.w	s1,s1
   11872:	013bf9b3          	and	s3,s7,s3
   11876:	1004e493          	ori	s1,s1,256
   1187a:	2981                	sext.w	s3,s3
   1187c:	e882                	sd	zero,80(sp)
   1187e:	ec82                	sd	zero,88(sp)
   11880:	e482                	sd	zero,72(sp)
   11882:	bb11                	j	11596 <_vfprintf_r+0x12ac>
   11884:	67a2                	ld	a5,8(sp)
   11886:	8ca2                	mv	s9,s0
   11888:	00f71023          	sh	a5,0(a4)
   1188c:	d05fe06f          	j	10590 <_vfprintf_r+0x2a6>
   11890:	87ce                	mv	a5,s3
   11892:	daffe06f          	j	10640 <_vfprintf_r+0x356>
   11896:	1982                	slli	s3,s3,0x20
   11898:	0209d993          	srli	s3,s3,0x20
   1189c:	e01fe06f          	j	1069c <_vfprintf_r+0x3b2>
   118a0:	1982                	slli	s3,s3,0x20
   118a2:	0209d993          	srli	s3,s3,0x20
   118a6:	b855                	j	1115a <_vfprintf_r+0xe70>
   118a8:	1982                	slli	s3,s3,0x20
   118aa:	0209d993          	srli	s3,s3,0x20
   118ae:	e83a                	sd	a4,16(sp)
   118b0:	4785                	li	a5,1
   118b2:	df5fe06f          	j	106a6 <_vfprintf_r+0x3bc>
   118b6:	0a10                	addi	a2,sp,272
   118b8:	85ca                	mv	a1,s2
   118ba:	8552                	mv	a0,s4
   118bc:	3ee060ef          	jal	ra,17caa <__sprint_r>
   118c0:	ce1fe06f          	j	105a0 <_vfprintf_r+0x2b6>
   118c4:	02d00793          	li	a5,45
   118c8:	0cf10fa3          	sb	a5,223(sp)
   118cc:	b1ed                	j	115b6 <_vfprintf_r+0x12cc>
   118ce:	ec02                	sd	zero,24(sp)
   118d0:	84be                	mv	s1,a5
   118d2:	57fd                	li	a5,-1
   118d4:	17fe                	slli	a5,a5,0x3f
   118d6:	00f9c9b3          	xor	s3,s3,a5
   118da:	02d00793          	li	a5,45
   118de:	e5be                	sd	a5,200(sp)
   118e0:	b249                	j	11262 <_vfprintf_r+0xf78>
   118e2:	0a10                	addi	a2,sp,272
   118e4:	85ca                	mv	a1,s2
   118e6:	8552                	mv	a0,s4
   118e8:	3c2060ef          	jal	ra,17caa <__sprint_r>
   118ec:	c2051f63          	bnez	a0,10d2a <_vfprintf_r+0xa40>
   118f0:	562e                	lw	a2,232(sp)
   118f2:	7792                	ld	a5,288(sp)
   118f4:	11812683          	lw	a3,280(sp)
   118f8:	835a                	mv	t1,s6
   118fa:	b6d5                	j	114de <_vfprintf_r+0x11f4>
   118fc:	001c059b          	addiw	a1,s8,1
   11900:	8552                	mv	a0,s4
   11902:	ec1a                	sd	t1,24(sp)
   11904:	1b4030ef          	jal	ra,14ab8 <_malloc_r>
   11908:	6362                	ld	t1,24(sp)
   1190a:	8caa                	mv	s9,a0
   1190c:	46050363          	beqz	a0,11d72 <_vfprintf_r+0x1a88>
   11910:	ec2a                	sd	a0,24(sp)
   11912:	ba2d                	j	1124c <_vfprintf_r+0xf62>
   11914:	4601                	li	a2,0
   11916:	4681                	li	a3,0
   11918:	855e                	mv	a0,s7
   1191a:	85ce                	mv	a1,s3
   1191c:	f846                	sd	a7,48(sp)
   1191e:	f01a                	sd	t1,32(sp)
   11920:	48e090ef          	jal	ra,1adae <__eqtf2>
   11924:	7302                	ld	t1,32(sp)
   11926:	78c2                	ld	a7,48(sp)
   11928:	9a0504e3          	beqz	a0,112d0 <_vfprintf_r+0xfe6>
   1192c:	4785                	li	a5,1
   1192e:	41b7873b          	subw	a4,a5,s11
   11932:	d5ba                	sw	a4,232(sp)
   11934:	98ba                	add	a7,a7,a4
   11936:	ba79                	j	112d4 <_vfprintf_r+0xfea>
   11938:	001c0d9b          	addiw	s11,s8,1
   1193c:	4689                	li	a3,2
   1193e:	ba91                	j	11292 <_vfprintf_r+0xfa8>
   11940:	8de2                	mv	s11,s8
   11942:	468d                	li	a3,3
   11944:	b2b9                	j	11292 <_vfprintf_r+0xfa8>
   11946:	85ce                	mv	a1,s3
   11948:	855e                	mv	a0,s7
   1194a:	f81a                	sd	t1,48(sp)
   1194c:	6ac0a0ef          	jal	ra,1bff8 <__trunctfdf2>
   11950:	11a8                	addi	a0,sp,232
   11952:	4b2040ef          	jal	ra,15e04 <frexp>
   11956:	5de0a0ef          	jal	ra,1bf34 <__extenddftf2>
   1195a:	768a                	ld	a3,160(sp)
   1195c:	4601                	li	a2,0
   1195e:	63c090ef          	jal	ra,1af9a <__multf3>
   11962:	4601                	li	a2,0
   11964:	4681                	li	a3,0
   11966:	8baa                	mv	s7,a0
   11968:	f02e                	sd	a1,32(sp)
   1196a:	444090ef          	jal	ra,1adae <__eqtf2>
   1196e:	7f82                	ld	t6,32(sp)
   11970:	7342                	ld	t1,48(sp)
   11972:	e119                	bnez	a0,11978 <_vfprintf_r+0x168e>
   11974:	4785                	li	a5,1
   11976:	d5be                	sw	a5,232(sp)
   11978:	67f1                	lui	a5,0x1c
   1197a:	29878793          	addi	a5,a5,664 # 1c298 <__clzdi2+0x80>
   1197e:	e4be                	sd	a5,72(sp)
   11980:	020c1793          	slli	a5,s8,0x20
   11984:	9381                	srli	a5,a5,0x20
   11986:	0785                	addi	a5,a5,1
   11988:	97e6                	add	a5,a5,s9
   1198a:	f93e                	sd	a5,176(sp)
   1198c:	018c87bb          	addw	a5,s9,s8
   11990:	8de6                	mv	s11,s9
   11992:	c3be                	sw	a5,196(sp)
   11994:	a829                	j	119ae <_vfprintf_r+0x16c4>
   11996:	4601                	li	a2,0
   11998:	4681                	li	a3,0
   1199a:	f01a                	sd	t1,32(sp)
   1199c:	fc2e                	sd	a1,56(sp)
   1199e:	f82a                	sd	a0,48(sp)
   119a0:	40e090ef          	jal	ra,1adae <__eqtf2>
   119a4:	77e2                	ld	a5,56(sp)
   119a6:	7302                	ld	t1,32(sp)
   119a8:	88de                	mv	a7,s7
   119aa:	8fbe                	mv	t6,a5
   119ac:	cd31                	beqz	a0,11a08 <_vfprintf_r+0x171e>
   119ae:	66ca                	ld	a3,144(sp)
   119b0:	4601                	li	a2,0
   119b2:	85fe                	mv	a1,t6
   119b4:	855e                	mv	a0,s7
   119b6:	f81a                	sd	t1,48(sp)
   119b8:	5e2090ef          	jal	ra,1af9a <__multf3>
   119bc:	8bae                	mv	s7,a1
   119be:	f02a                	sd	a0,32(sp)
   119c0:	48c0a0ef          	jal	ra,1be4c <__fixtfsi>
   119c4:	0005099b          	sext.w	s3,a0
   119c8:	854e                	mv	a0,s3
   119ca:	5140a0ef          	jal	ra,1bede <__floatsitf>
   119ce:	7782                	ld	a5,32(sp)
   119d0:	86ae                	mv	a3,a1
   119d2:	862a                	mv	a2,a0
   119d4:	85de                	mv	a1,s7
   119d6:	853e                	mv	a0,a5
   119d8:	3ed090ef          	jal	ra,1b5c4 <__subtf3>
   119dc:	67a6                	ld	a5,72(sp)
   119de:	471e                	lw	a4,196(sp)
   119e0:	fd6e                	sd	s11,184(sp)
   119e2:	97ce                	add	a5,a5,s3
   119e4:	0d85                	addi	s11,s11,1
   119e6:	0007c683          	lbu	a3,0(a5)
   119ea:	41b7073b          	subw	a4,a4,s11
   119ee:	e8ba                	sd	a4,80(sp)
   119f0:	774a                	ld	a4,176(sp)
   119f2:	fedd8fa3          	sb	a3,-1(s11)
   119f6:	e0ae                	sd	a1,64(sp)
   119f8:	7342                	ld	t1,48(sp)
   119fa:	87ae                	mv	a5,a1
   119fc:	88aa                	mv	a7,a0
   119fe:	8baa                	mv	s7,a0
   11a00:	f9b71be3          	bne	a4,s11,11996 <_vfprintf_r+0x16ac>
   11a04:	577d                	li	a4,-1
   11a06:	e8ba                	sd	a4,80(sp)
   11a08:	66ea                	ld	a3,152(sp)
   11a0a:	4601                	li	a2,0
   11a0c:	8546                	mv	a0,a7
   11a0e:	85be                	mv	a1,a5
   11a10:	f01a                	sd	t1,32(sp)
   11a12:	fc46                	sd	a7,56(sp)
   11a14:	f83e                	sd	a5,48(sp)
   11a16:	438090ef          	jal	ra,1ae4e <__getf2>
   11a1a:	7302                	ld	t1,32(sp)
   11a1c:	1ca04463          	bgtz	a0,11be4 <_vfprintf_r+0x18fa>
   11a20:	78e2                	ld	a7,56(sp)
   11a22:	77c2                	ld	a5,48(sp)
   11a24:	66ea                	ld	a3,152(sp)
   11a26:	4601                	li	a2,0
   11a28:	8546                	mv	a0,a7
   11a2a:	85be                	mv	a1,a5
   11a2c:	382090ef          	jal	ra,1adae <__eqtf2>
   11a30:	7302                	ld	t1,32(sp)
   11a32:	e509                	bnez	a0,11a3c <_vfprintf_r+0x1752>
   11a34:	0019f993          	andi	s3,s3,1
   11a38:	1a099663          	bnez	s3,11be4 <_vfprintf_r+0x18fa>
   11a3c:	6746                	ld	a4,80(sp)
   11a3e:	03000693          	li	a3,48
   11a42:	0017079b          	addiw	a5,a4,1
   11a46:	97ee                	add	a5,a5,s11
   11a48:	00074763          	bltz	a4,11a56 <_vfprintf_r+0x176c>
   11a4c:	0d85                	addi	s11,s11,1
   11a4e:	fedd8fa3          	sb	a3,-1(s11)
   11a52:	ffb79de3          	bne	a5,s11,11a4c <_vfprintf_r+0x1762>
   11a56:	419d87bb          	subw	a5,s11,s9
   11a5a:	f03e                	sd	a5,32(sp)
   11a5c:	b859                	j	112f2 <_vfprintf_r+0x1008>
   11a5e:	7702                	ld	a4,32(sp)
   11a60:	9766                	add	a4,a4,s9
   11a62:	c7877d63          	bgeu	a4,s8,10edc <_vfprintf_r+0xbf2>
   11a66:	8c3a                	mv	s8,a4
   11a68:	c74ff06f          	j	10edc <_vfprintf_r+0xbf2>
   11a6c:	0df14783          	lbu	a5,223(sp)
   11a70:	4c01                	li	s8,0
   11a72:	c399                	beqz	a5,11a78 <_vfprintf_r+0x178e>
   11a74:	c0dfe06f          	j	10680 <_vfprintf_r+0x396>
   11a78:	a39fe06f          	j	104b0 <_vfprintf_r+0x1c6>
   11a7c:	77aa                	ld	a5,168(sp)
   11a7e:	01b508b3          	add	a7,a0,s11
   11a82:	8b85                	andi	a5,a5,1
   11a84:	840798e3          	bnez	a5,112d4 <_vfprintf_r+0xfea>
   11a88:	76ee                	ld	a3,248(sp)
   11a8a:	863ff06f          	j	112ec <_vfprintf_r+0x1002>
   11a8e:	0a10                	addi	a2,sp,272
   11a90:	85ca                	mv	a1,s2
   11a92:	8552                	mv	a0,s4
   11a94:	216060ef          	jal	ra,17caa <__sprint_r>
   11a98:	a8051963          	bnez	a0,10d2a <_vfprintf_r+0xa40>
   11a9c:	7786                	ld	a5,96(sp)
   11a9e:	835a                	mv	t1,s6
   11aa0:	0007c603          	lbu	a2,0(a5)
   11aa4:	7792                	ld	a5,288(sp)
   11aa6:	9c32                	add	s8,s8,a2
   11aa8:	b6fd                	j	11696 <_vfprintf_r+0x13ac>
   11aaa:	02d00793          	li	a5,45
   11aae:	0cf10fa3          	sb	a5,223(sp)
   11ab2:	ba71                	j	1144e <_vfprintf_r+0x1164>
   11ab4:	0a10                	addi	a2,sp,272
   11ab6:	85ca                	mv	a1,s2
   11ab8:	8552                	mv	a0,s4
   11aba:	1f0060ef          	jal	ra,17caa <__sprint_r>
   11abe:	a6051663          	bnez	a0,10d2a <_vfprintf_r+0xa40>
   11ac2:	572e                	lw	a4,232(sp)
   11ac4:	7792                	ld	a5,288(sp)
   11ac6:	835a                	mv	t1,s6
   11ac8:	c4aff06f          	j	10f12 <_vfprintf_r+0xc28>
   11acc:	0df14783          	lbu	a5,223(sp)
   11ad0:	e86e                	sd	s11,16(sp)
   11ad2:	e882                	sd	zero,80(sp)
   11ad4:	ec82                	sd	zero,88(sp)
   11ad6:	e482                	sd	zero,72(sp)
   11ad8:	89e2                	mv	s3,s8
   11ada:	8be2                	mv	s7,s8
   11adc:	4c01                	li	s8,0
   11ade:	c399                	beqz	a5,11ae4 <_vfprintf_r+0x17fa>
   11ae0:	ba1fe06f          	j	10680 <_vfprintf_r+0x396>
   11ae4:	9cdfe06f          	j	104b0 <_vfprintf_r+0x1c6>
   11ae8:	0a10                	addi	a2,sp,272
   11aea:	85ca                	mv	a1,s2
   11aec:	8552                	mv	a0,s4
   11aee:	1bc060ef          	jal	ra,17caa <__sprint_r>
   11af2:	a2051c63          	bnez	a0,10d2a <_vfprintf_r+0xa40>
   11af6:	56ae                	lw	a3,232(sp)
   11af8:	7702                	ld	a4,32(sp)
   11afa:	7792                	ld	a5,288(sp)
   11afc:	835a                	mv	t1,s6
   11afe:	40d706bb          	subw	a3,a4,a3
   11b02:	c4cff06f          	j	10f4e <_vfprintf_r+0xc64>
   11b06:	6871                	lui	a6,0x1c
   11b08:	27080c93          	addi	s9,a6,624 # 1c270 <__clzdi2+0x58>
   11b0c:	ba81                	j	1145c <_vfprintf_r+0x1172>
   11b0e:	68f1                	lui	a7,0x1c
   11b10:	5741                	li	a4,-16
   11b12:	40c00c3b          	negw	s8,a2
   11b16:	4d888d93          	addi	s11,a7,1240 # 1c4d8 <zeroes.0>
   11b1a:	4bc1                	li	s7,16
   11b1c:	4d1d                	li	s10,7
   11b1e:	00e64663          	blt	a2,a4,11b2a <_vfprintf_r+0x1840>
   11b22:	a0ad                	j	11b8c <_vfprintf_r+0x18a2>
   11b24:	3c41                	addiw	s8,s8,-16
   11b26:	078bd363          	bge	s7,s8,11b8c <_vfprintf_r+0x18a2>
   11b2a:	2685                	addiw	a3,a3,1
   11b2c:	07c1                	addi	a5,a5,16
   11b2e:	01b33023          	sd	s11,0(t1)
   11b32:	01733423          	sd	s7,8(t1)
   11b36:	f23e                	sd	a5,288(sp)
   11b38:	10d12c23          	sw	a3,280(sp)
   11b3c:	0341                	addi	t1,t1,16
   11b3e:	fedd53e3          	bge	s10,a3,11b24 <_vfprintf_r+0x183a>
   11b42:	0a10                	addi	a2,sp,272
   11b44:	85ca                	mv	a1,s2
   11b46:	8552                	mv	a0,s4
   11b48:	162060ef          	jal	ra,17caa <__sprint_r>
   11b4c:	9c051f63          	bnez	a0,10d2a <_vfprintf_r+0xa40>
   11b50:	7792                	ld	a5,288(sp)
   11b52:	11812683          	lw	a3,280(sp)
   11b56:	835a                	mv	t1,s6
   11b58:	b7f1                	j	11b24 <_vfprintf_r+0x183a>
   11b5a:	57fd                	li	a5,-1
   11b5c:	e43e                	sd	a5,8(sp)
   11b5e:	a51fe06f          	j	105ae <_vfprintf_r+0x2c4>
   11b62:	7702                	ld	a4,32(sp)
   11b64:	77a6                	ld	a5,104(sp)
   11b66:	06700d13          	li	s10,103
   11b6a:	00e78bbb          	addw	s7,a5,a4
   11b6e:	6726                	ld	a4,72(sp)
   11b70:	fae04963          	bgtz	a4,11322 <_vfprintf_r+0x1038>
   11b74:	40eb87bb          	subw	a5,s7,a4
   11b78:	2785                	addiw	a5,a5,1
   11b7a:	00078b9b          	sext.w	s7,a5
   11b7e:	fffbc713          	not	a4,s7
   11b82:	977d                	srai	a4,a4,0x3f
   11b84:	8ff9                	and	a5,a5,a4
   11b86:	0007899b          	sext.w	s3,a5
   11b8a:	b421                	j	11592 <_vfprintf_r+0x12a8>
   11b8c:	2685                	addiw	a3,a3,1
   11b8e:	97e2                	add	a5,a5,s8
   11b90:	01b33023          	sd	s11,0(t1)
   11b94:	01833423          	sd	s8,8(t1)
   11b98:	f23e                	sd	a5,288(sp)
   11b9a:	10d12c23          	sw	a3,280(sp)
   11b9e:	471d                	li	a4,7
   11ba0:	84d75ce3          	bge	a4,a3,113f8 <_vfprintf_r+0x110e>
   11ba4:	0a10                	addi	a2,sp,272
   11ba6:	85ca                	mv	a1,s2
   11ba8:	8552                	mv	a0,s4
   11baa:	100060ef          	jal	ra,17caa <__sprint_r>
   11bae:	96051e63          	bnez	a0,10d2a <_vfprintf_r+0xa40>
   11bb2:	7792                	ld	a5,288(sp)
   11bb4:	11812683          	lw	a3,280(sp)
   11bb8:	835a                	mv	t1,s6
   11bba:	b225                	j	114e2 <_vfprintf_r+0x11f8>
   11bbc:	0f210713          	addi	a4,sp,242
   11bc0:	e619                	bnez	a2,11bce <_vfprintf_r+0x18e4>
   11bc2:	03000793          	li	a5,48
   11bc6:	0ef10923          	sb	a5,242(sp)
   11bca:	0f310713          	addi	a4,sp,243
   11bce:	0306879b          	addiw	a5,a3,48
   11bd2:	0c14                	addi	a3,sp,528
   11bd4:	40d706b3          	sub	a3,a4,a3
   11bd8:	00f70023          	sb	a5,0(a4)
   11bdc:	1216879b          	addiw	a5,a3,289
   11be0:	fcbe                	sd	a5,120(sp)
   11be2:	b1ad                	j	1184c <_vfprintf_r+0x1562>
   11be4:	77ea                	ld	a5,184(sp)
   11be6:	fdbe                	sd	a5,248(sp)
   11be8:	67a6                	ld	a5,72(sp)
   11bea:	fffdc683          	lbu	a3,-1(s11)
   11bee:	00f7c603          	lbu	a2,15(a5)
   11bf2:	87ee                	mv	a5,s11
   11bf4:	00d61e63          	bne	a2,a3,11c10 <_vfprintf_r+0x1926>
   11bf8:	03000593          	li	a1,48
   11bfc:	feb78fa3          	sb	a1,-1(a5)
   11c00:	77ee                	ld	a5,248(sp)
   11c02:	fff78693          	addi	a3,a5,-1
   11c06:	fdb6                	sd	a3,248(sp)
   11c08:	fff7c683          	lbu	a3,-1(a5)
   11c0c:	fed608e3          	beq	a2,a3,11bfc <_vfprintf_r+0x1912>
   11c10:	0016861b          	addiw	a2,a3,1
   11c14:	03900593          	li	a1,57
   11c18:	0ff67613          	zext.b	a2,a2
   11c1c:	00b68563          	beq	a3,a1,11c26 <_vfprintf_r+0x193c>
   11c20:	fec78fa3          	sb	a2,-1(a5)
   11c24:	bd0d                	j	11a56 <_vfprintf_r+0x176c>
   11c26:	6726                	ld	a4,72(sp)
   11c28:	00a74603          	lbu	a2,10(a4)
   11c2c:	fec78fa3          	sb	a2,-1(a5)
   11c30:	b51d                	j	11a56 <_vfprintf_r+0x176c>
   11c32:	8da6                	mv	s11,s1
   11c34:	914ff06f          	j	10d48 <_vfprintf_r+0xa5e>
   11c38:	772a                	ld	a4,168(sp)
   11c3a:	8b05                	andi	a4,a4,1
   11c3c:	c20703e3          	beqz	a4,11862 <_vfprintf_r+0x1578>
   11c40:	b931                	j	1185c <_vfprintf_r+0x1572>
   11c42:	000c0463          	beqz	s8,11c4a <_vfprintf_r+0x1960>
   11c46:	b1bfe06f          	j	10760 <_vfprintf_r+0x476>
   11c4a:	4c05                	li	s8,1
   11c4c:	b15fe06f          	j	10760 <_vfprintf_r+0x476>
   11c50:	4c19                	li	s8,6
   11c52:	b0ffe06f          	j	10760 <_vfprintf_r+0x476>
   11c56:	c31c                	sw	a5,0(a4)
   11c58:	8ca2                	mv	s9,s0
   11c5a:	937fe06f          	j	10590 <_vfprintf_r+0x2a6>
   11c5e:	85ce                	mv	a1,s3
   11c60:	855e                	mv	a0,s7
   11c62:	f81a                	sd	t1,48(sp)
   11c64:	3940a0ef          	jal	ra,1bff8 <__trunctfdf2>
   11c68:	11a8                	addi	a0,sp,232
   11c6a:	19a040ef          	jal	ra,15e04 <frexp>
   11c6e:	2c60a0ef          	jal	ra,1bf34 <__extenddftf2>
   11c72:	768a                	ld	a3,160(sp)
   11c74:	4601                	li	a2,0
   11c76:	324090ef          	jal	ra,1af9a <__multf3>
   11c7a:	4601                	li	a2,0
   11c7c:	4681                	li	a3,0
   11c7e:	8baa                	mv	s7,a0
   11c80:	f02e                	sd	a1,32(sp)
   11c82:	12c090ef          	jal	ra,1adae <__eqtf2>
   11c86:	7f82                	ld	t6,32(sp)
   11c88:	7342                	ld	t1,48(sp)
   11c8a:	e119                	bnez	a0,11c90 <_vfprintf_r+0x19a6>
   11c8c:	4785                	li	a5,1
   11c8e:	d5be                	sw	a5,232(sp)
   11c90:	67f1                	lui	a5,0x1c
   11c92:	28078793          	addi	a5,a5,640 # 1c280 <__clzdi2+0x68>
   11c96:	e4be                	sd	a5,72(sp)
   11c98:	b1e5                	j	11980 <_vfprintf_r+0x1696>
   11c9a:	06700d13          	li	s10,103
   11c9e:	7786                	ld	a5,96(sp)
   11ca0:	0ff00713          	li	a4,255
   11ca4:	e882                	sd	zero,80(sp)
   11ca6:	0007c783          	lbu	a5,0(a5)
   11caa:	ec82                	sd	zero,88(sp)
   11cac:	02e78863          	beq	a5,a4,11cdc <_vfprintf_r+0x19f2>
   11cb0:	0ff00693          	li	a3,255
   11cb4:	6626                	ld	a2,72(sp)
   11cb6:	0007871b          	sext.w	a4,a5
   11cba:	02c7d163          	bge	a5,a2,11cdc <_vfprintf_r+0x19f2>
   11cbe:	7586                	ld	a1,96(sp)
   11cc0:	40e6073b          	subw	a4,a2,a4
   11cc4:	e4ba                	sd	a4,72(sp)
   11cc6:	0015c783          	lbu	a5,1(a1)
   11cca:	cb95                	beqz	a5,11cfe <_vfprintf_r+0x1a14>
   11ccc:	6766                	ld	a4,88(sp)
   11cce:	2705                	addiw	a4,a4,1
   11cd0:	ecba                	sd	a4,88(sp)
   11cd2:	00158713          	addi	a4,a1,1
   11cd6:	f0ba                	sd	a4,96(sp)
   11cd8:	fcd79ee3          	bne	a5,a3,11cb4 <_vfprintf_r+0x19ca>
   11cdc:	6766                	ld	a4,88(sp)
   11cde:	67c6                	ld	a5,80(sp)
   11ce0:	9fb9                	addw	a5,a5,a4
   11ce2:	670a                	ld	a4,128(sp)
   11ce4:	02e787bb          	mulw	a5,a5,a4
   11ce8:	017787bb          	addw	a5,a5,s7
   11cec:	00078b9b          	sext.w	s7,a5
   11cf0:	fffbc713          	not	a4,s7
   11cf4:	977d                	srai	a4,a4,0x3f
   11cf6:	8ff9                	and	a5,a5,a4
   11cf8:	0007899b          	sext.w	s3,a5
   11cfc:	b869                	j	11596 <_vfprintf_r+0x12ac>
   11cfe:	6746                	ld	a4,80(sp)
   11d00:	7786                	ld	a5,96(sp)
   11d02:	2705                	addiw	a4,a4,1
   11d04:	0007c783          	lbu	a5,0(a5)
   11d08:	e8ba                	sd	a4,80(sp)
   11d0a:	b7f9                	j	11cd8 <_vfprintf_r+0x19ee>
   11d0c:	77a6                	ld	a5,104(sp)
   11d0e:	06600d13          	li	s10,102
   11d12:	00e78bbb          	addw	s7,a5,a4
   11d16:	018b8bbb          	addw	s7,s7,s8
   11d1a:	e08ff06f          	j	11322 <_vfprintf_r+0x1038>
   11d1e:	e799                	bnez	a5,11d2c <_vfprintf_r+0x1a42>
   11d20:	4985                	li	s3,1
   11d22:	06600d13          	li	s10,102
   11d26:	4b85                	li	s7,1
   11d28:	86bff06f          	j	11592 <_vfprintf_r+0x12a8>
   11d2c:	77a6                	ld	a5,104(sp)
   11d2e:	06600d13          	li	s10,102
   11d32:	2785                	addiw	a5,a5,1
   11d34:	018787bb          	addw	a5,a5,s8
   11d38:	00078b9b          	sext.w	s7,a5
   11d3c:	fffbc713          	not	a4,s7
   11d40:	977d                	srai	a4,a4,0x3f
   11d42:	8ff9                	and	a5,a5,a4
   11d44:	0007899b          	sext.w	s3,a5
   11d48:	84bff06f          	j	11592 <_vfprintf_r+0x12a8>
   11d4c:	66c2                	ld	a3,16(sp)
   11d4e:	4298                	lw	a4,0(a3)
   11d50:	00868613          	addi	a2,a3,8
   11d54:	86ba                	mv	a3,a4
   11d56:	00075363          	bgez	a4,11d5c <_vfprintf_r+0x1a72>
   11d5a:	56fd                	li	a3,-1
   11d5c:	00144e03          	lbu	t3,1(s0)
   11d60:	00068c1b          	sext.w	s8,a3
   11d64:	e832                	sd	a2,16(sp)
   11d66:	843e                	mv	s0,a5
   11d68:	ed2fe06f          	j	1043a <_vfprintf_r+0x150>
   11d6c:	4789                	li	a5,2
   11d6e:	fcbe                	sd	a5,120(sp)
   11d70:	bcf1                	j	1184c <_vfprintf_r+0x1562>
   11d72:	01095783          	lhu	a5,16(s2)
   11d76:	0407e793          	ori	a5,a5,64
   11d7a:	00f91823          	sh	a5,16(s2)
   11d7e:	823fe06f          	j	105a0 <_vfprintf_r+0x2b6>

0000000000011d82 <vfprintf>:
   11d82:	87aa                	mv	a5,a0
   11d84:	7581b503          	ld	a0,1880(gp) # 1f2d8 <_impure_ptr>
   11d88:	86b2                	mv	a3,a2
   11d8a:	862e                	mv	a2,a1
   11d8c:	85be                	mv	a1,a5
   11d8e:	d5cfe06f          	j	102ea <_vfprintf_r>

0000000000011d92 <__sbprintf>:
   11d92:	0105d783          	lhu	a5,16(a1)
   11d96:	0ac5ae03          	lw	t3,172(a1)
   11d9a:	0125d303          	lhu	t1,18(a1)
   11d9e:	0305b883          	ld	a7,48(a1)
   11da2:	0405b803          	ld	a6,64(a1)
   11da6:	b3010113          	addi	sp,sp,-1232
   11daa:	9bf5                	andi	a5,a5,-3
   11dac:	40000713          	li	a4,1024
   11db0:	4c813023          	sd	s0,1216(sp)
   11db4:	00f11823          	sh	a5,16(sp)
   11db8:	842e                	mv	s0,a1
   11dba:	191c                	addi	a5,sp,176
   11dbc:	858a                	mv	a1,sp
   11dbe:	4a913c23          	sd	s1,1208(sp)
   11dc2:	4b213823          	sd	s2,1200(sp)
   11dc6:	4c113423          	sd	ra,1224(sp)
   11dca:	892a                	mv	s2,a0
   11dcc:	d772                	sw	t3,172(sp)
   11dce:	00611923          	sh	t1,18(sp)
   11dd2:	f846                	sd	a7,48(sp)
   11dd4:	e0c2                	sd	a6,64(sp)
   11dd6:	e03e                	sd	a5,0(sp)
   11dd8:	ec3e                	sd	a5,24(sp)
   11dda:	c63a                	sw	a4,12(sp)
   11ddc:	d03a                	sw	a4,32(sp)
   11dde:	d402                	sw	zero,40(sp)
   11de0:	d0afe0ef          	jal	ra,102ea <_vfprintf_r>
   11de4:	84aa                	mv	s1,a0
   11de6:	02055963          	bgez	a0,11e18 <__sbprintf+0x86>
   11dea:	01015783          	lhu	a5,16(sp)
   11dee:	0407f793          	andi	a5,a5,64
   11df2:	c799                	beqz	a5,11e00 <__sbprintf+0x6e>
   11df4:	01045783          	lhu	a5,16(s0)
   11df8:	0407e793          	ori	a5,a5,64
   11dfc:	00f41823          	sh	a5,16(s0)
   11e00:	4c813083          	ld	ra,1224(sp)
   11e04:	4c013403          	ld	s0,1216(sp)
   11e08:	4b013903          	ld	s2,1200(sp)
   11e0c:	8526                	mv	a0,s1
   11e0e:	4b813483          	ld	s1,1208(sp)
   11e12:	4d010113          	addi	sp,sp,1232
   11e16:	8082                	ret
   11e18:	858a                	mv	a1,sp
   11e1a:	854a                	mv	a0,s2
   11e1c:	362000ef          	jal	ra,1217e <_fflush_r>
   11e20:	d569                	beqz	a0,11dea <__sbprintf+0x58>
   11e22:	54fd                	li	s1,-1
   11e24:	b7d9                	j	11dea <__sbprintf+0x58>

0000000000011e26 <__swsetup_r>:
   11e26:	7581b783          	ld	a5,1880(gp) # 1f2d8 <_impure_ptr>
   11e2a:	1101                	addi	sp,sp,-32
   11e2c:	e822                	sd	s0,16(sp)
   11e2e:	e426                	sd	s1,8(sp)
   11e30:	ec06                	sd	ra,24(sp)
   11e32:	84aa                	mv	s1,a0
   11e34:	842e                	mv	s0,a1
   11e36:	c399                	beqz	a5,11e3c <__swsetup_r+0x16>
   11e38:	4bb8                	lw	a4,80(a5)
   11e3a:	cf21                	beqz	a4,11e92 <__swsetup_r+0x6c>
   11e3c:	01041703          	lh	a4,16(s0)
   11e40:	03071793          	slli	a5,a4,0x30
   11e44:	00877693          	andi	a3,a4,8
   11e48:	93c1                	srli	a5,a5,0x30
   11e4a:	ceb9                	beqz	a3,11ea8 <__swsetup_r+0x82>
   11e4c:	6c14                	ld	a3,24(s0)
   11e4e:	cabd                	beqz	a3,11ec4 <__swsetup_r+0x9e>
   11e50:	0017f613          	andi	a2,a5,1
   11e54:	ce11                	beqz	a2,11e70 <__swsetup_r+0x4a>
   11e56:	5010                	lw	a2,32(s0)
   11e58:	00042623          	sw	zero,12(s0)
   11e5c:	4501                	li	a0,0
   11e5e:	40c0063b          	negw	a2,a2
   11e62:	d410                	sw	a2,40(s0)
   11e64:	ce91                	beqz	a3,11e80 <__swsetup_r+0x5a>
   11e66:	60e2                	ld	ra,24(sp)
   11e68:	6442                	ld	s0,16(sp)
   11e6a:	64a2                	ld	s1,8(sp)
   11e6c:	6105                	addi	sp,sp,32
   11e6e:	8082                	ret
   11e70:	0027f613          	andi	a2,a5,2
   11e74:	4581                	li	a1,0
   11e76:	e211                	bnez	a2,11e7a <__swsetup_r+0x54>
   11e78:	500c                	lw	a1,32(s0)
   11e7a:	c44c                	sw	a1,12(s0)
   11e7c:	4501                	li	a0,0
   11e7e:	f6e5                	bnez	a3,11e66 <__swsetup_r+0x40>
   11e80:	0807f793          	andi	a5,a5,128
   11e84:	d3ed                	beqz	a5,11e66 <__swsetup_r+0x40>
   11e86:	04076713          	ori	a4,a4,64
   11e8a:	00e41823          	sh	a4,16(s0)
   11e8e:	557d                	li	a0,-1
   11e90:	bfd9                	j	11e66 <__swsetup_r+0x40>
   11e92:	853e                	mv	a0,a5
   11e94:	5c6000ef          	jal	ra,1245a <__sinit>
   11e98:	01041703          	lh	a4,16(s0)
   11e9c:	03071793          	slli	a5,a4,0x30
   11ea0:	00877693          	andi	a3,a4,8
   11ea4:	93c1                	srli	a5,a5,0x30
   11ea6:	f2dd                	bnez	a3,11e4c <__swsetup_r+0x26>
   11ea8:	0107f693          	andi	a3,a5,16
   11eac:	c2ad                	beqz	a3,11f0e <__swsetup_r+0xe8>
   11eae:	8b91                	andi	a5,a5,4
   11eb0:	eb9d                	bnez	a5,11ee6 <__swsetup_r+0xc0>
   11eb2:	6c14                	ld	a3,24(s0)
   11eb4:	00876713          	ori	a4,a4,8
   11eb8:	03071793          	slli	a5,a4,0x30
   11ebc:	00e41823          	sh	a4,16(s0)
   11ec0:	93c1                	srli	a5,a5,0x30
   11ec2:	f6d9                	bnez	a3,11e50 <__swsetup_r+0x2a>
   11ec4:	2807f613          	andi	a2,a5,640
   11ec8:	20000593          	li	a1,512
   11ecc:	f8b602e3          	beq	a2,a1,11e50 <__swsetup_r+0x2a>
   11ed0:	85a2                	mv	a1,s0
   11ed2:	8526                	mv	a0,s1
   11ed4:	247020ef          	jal	ra,1491a <__smakebuf_r>
   11ed8:	01041703          	lh	a4,16(s0)
   11edc:	6c14                	ld	a3,24(s0)
   11ede:	03071793          	slli	a5,a4,0x30
   11ee2:	93c1                	srli	a5,a5,0x30
   11ee4:	b7b5                	j	11e50 <__swsetup_r+0x2a>
   11ee6:	6c2c                	ld	a1,88(s0)
   11ee8:	cd81                	beqz	a1,11f00 <__swsetup_r+0xda>
   11eea:	07440793          	addi	a5,s0,116
   11eee:	00f58763          	beq	a1,a5,11efc <__swsetup_r+0xd6>
   11ef2:	8526                	mv	a0,s1
   11ef4:	696000ef          	jal	ra,1258a <_free_r>
   11ef8:	01041703          	lh	a4,16(s0)
   11efc:	04043c23          	sd	zero,88(s0)
   11f00:	6c14                	ld	a3,24(s0)
   11f02:	fdb77713          	andi	a4,a4,-37
   11f06:	00042423          	sw	zero,8(s0)
   11f0a:	e014                	sd	a3,0(s0)
   11f0c:	b765                	j	11eb4 <__swsetup_r+0x8e>
   11f0e:	47a5                	li	a5,9
   11f10:	c09c                	sw	a5,0(s1)
   11f12:	04076713          	ori	a4,a4,64
   11f16:	00e41823          	sh	a4,16(s0)
   11f1a:	557d                	li	a0,-1
   11f1c:	b7a9                	j	11e66 <__swsetup_r+0x40>

0000000000011f1e <__call_exitprocs>:
   11f1e:	715d                	addi	sp,sp,-80
   11f20:	f052                	sd	s4,32(sp)
   11f22:	7481ba03          	ld	s4,1864(gp) # 1f2c8 <_global_impure_ptr>
   11f26:	f84a                	sd	s2,48(sp)
   11f28:	e486                	sd	ra,72(sp)
   11f2a:	1f8a3903          	ld	s2,504(s4)
   11f2e:	e0a2                	sd	s0,64(sp)
   11f30:	fc26                	sd	s1,56(sp)
   11f32:	f44e                	sd	s3,40(sp)
   11f34:	ec56                	sd	s5,24(sp)
   11f36:	e85a                	sd	s6,16(sp)
   11f38:	e45e                	sd	s7,8(sp)
   11f3a:	e062                	sd	s8,0(sp)
   11f3c:	02090863          	beqz	s2,11f6c <__call_exitprocs+0x4e>
   11f40:	8b2a                	mv	s6,a0
   11f42:	8bae                	mv	s7,a1
   11f44:	4a85                	li	s5,1
   11f46:	59fd                	li	s3,-1
   11f48:	00892483          	lw	s1,8(s2)
   11f4c:	fff4841b          	addiw	s0,s1,-1
   11f50:	00044e63          	bltz	s0,11f6c <__call_exitprocs+0x4e>
   11f54:	048e                	slli	s1,s1,0x3
   11f56:	94ca                	add	s1,s1,s2
   11f58:	020b8663          	beqz	s7,11f84 <__call_exitprocs+0x66>
   11f5c:	2084b783          	ld	a5,520(s1)
   11f60:	03778263          	beq	a5,s7,11f84 <__call_exitprocs+0x66>
   11f64:	347d                	addiw	s0,s0,-1
   11f66:	14e1                	addi	s1,s1,-8
   11f68:	ff3418e3          	bne	s0,s3,11f58 <__call_exitprocs+0x3a>
   11f6c:	60a6                	ld	ra,72(sp)
   11f6e:	6406                	ld	s0,64(sp)
   11f70:	74e2                	ld	s1,56(sp)
   11f72:	7942                	ld	s2,48(sp)
   11f74:	79a2                	ld	s3,40(sp)
   11f76:	7a02                	ld	s4,32(sp)
   11f78:	6ae2                	ld	s5,24(sp)
   11f7a:	6b42                	ld	s6,16(sp)
   11f7c:	6ba2                	ld	s7,8(sp)
   11f7e:	6c02                	ld	s8,0(sp)
   11f80:	6161                	addi	sp,sp,80
   11f82:	8082                	ret
   11f84:	00892783          	lw	a5,8(s2)
   11f88:	6498                	ld	a4,8(s1)
   11f8a:	37fd                	addiw	a5,a5,-1
   11f8c:	04878463          	beq	a5,s0,11fd4 <__call_exitprocs+0xb6>
   11f90:	0004b423          	sd	zero,8(s1)
   11f94:	db61                	beqz	a4,11f64 <__call_exitprocs+0x46>
   11f96:	31092783          	lw	a5,784(s2)
   11f9a:	008a96bb          	sllw	a3,s5,s0
   11f9e:	00892c03          	lw	s8,8(s2)
   11fa2:	8ff5                	and	a5,a5,a3
   11fa4:	2781                	sext.w	a5,a5
   11fa6:	ef89                	bnez	a5,11fc0 <__call_exitprocs+0xa2>
   11fa8:	9702                	jalr	a4
   11faa:	00892703          	lw	a4,8(s2)
   11fae:	1f8a3783          	ld	a5,504(s4)
   11fb2:	01871463          	bne	a4,s8,11fba <__call_exitprocs+0x9c>
   11fb6:	fb2787e3          	beq	a5,s2,11f64 <__call_exitprocs+0x46>
   11fba:	dbcd                	beqz	a5,11f6c <__call_exitprocs+0x4e>
   11fbc:	893e                	mv	s2,a5
   11fbe:	b769                	j	11f48 <__call_exitprocs+0x2a>
   11fc0:	31492783          	lw	a5,788(s2)
   11fc4:	1084b583          	ld	a1,264(s1)
   11fc8:	8ff5                	and	a5,a5,a3
   11fca:	2781                	sext.w	a5,a5
   11fcc:	e799                	bnez	a5,11fda <__call_exitprocs+0xbc>
   11fce:	855a                	mv	a0,s6
   11fd0:	9702                	jalr	a4
   11fd2:	bfe1                	j	11faa <__call_exitprocs+0x8c>
   11fd4:	00892423          	sw	s0,8(s2)
   11fd8:	bf75                	j	11f94 <__call_exitprocs+0x76>
   11fda:	852e                	mv	a0,a1
   11fdc:	9702                	jalr	a4
   11fde:	b7f1                	j	11faa <__call_exitprocs+0x8c>

0000000000011fe0 <atexit>:
   11fe0:	85aa                	mv	a1,a0
   11fe2:	4681                	li	a3,0
   11fe4:	4601                	li	a2,0
   11fe6:	4501                	li	a0,0
   11fe8:	1f30606f          	j	189da <__register_exitproc>

0000000000011fec <__sflush_r>:
   11fec:	01059783          	lh	a5,16(a1)
   11ff0:	7179                	addi	sp,sp,-48
   11ff2:	f022                	sd	s0,32(sp)
   11ff4:	e44e                	sd	s3,8(sp)
   11ff6:	f406                	sd	ra,40(sp)
   11ff8:	ec26                	sd	s1,24(sp)
   11ffa:	e84a                	sd	s2,16(sp)
   11ffc:	0087f693          	andi	a3,a5,8
   12000:	842e                	mv	s0,a1
   12002:	89aa                	mv	s3,a0
   12004:	ead5                	bnez	a3,120b8 <__sflush_r+0xcc>
   12006:	6705                	lui	a4,0x1
   12008:	80070713          	addi	a4,a4,-2048 # 800 <register_fini-0xf8b0>
   1200c:	4594                	lw	a3,8(a1)
   1200e:	8fd9                	or	a5,a5,a4
   12010:	00f59823          	sh	a5,16(a1)
   12014:	10d05063          	blez	a3,12114 <__sflush_r+0x128>
   12018:	6438                	ld	a4,72(s0)
   1201a:	c759                	beqz	a4,120a8 <__sflush_r+0xbc>
   1201c:	17c2                	slli	a5,a5,0x30
   1201e:	93c1                	srli	a5,a5,0x30
   12020:	6685                	lui	a3,0x1
   12022:	0009a483          	lw	s1,0(s3)
   12026:	8efd                	and	a3,a3,a5
   12028:	0009a023          	sw	zero,0(s3)
   1202c:	780c                	ld	a1,48(s0)
   1202e:	e6fd                	bnez	a3,1211c <__sflush_r+0x130>
   12030:	4601                	li	a2,0
   12032:	4685                	li	a3,1
   12034:	854e                	mv	a0,s3
   12036:	9702                	jalr	a4
   12038:	57fd                	li	a5,-1
   1203a:	862a                	mv	a2,a0
   1203c:	10f50763          	beq	a0,a5,1214a <__sflush_r+0x15e>
   12040:	01045783          	lhu	a5,16(s0)
   12044:	6438                	ld	a4,72(s0)
   12046:	780c                	ld	a1,48(s0)
   12048:	8b91                	andi	a5,a5,4
   1204a:	c799                	beqz	a5,12058 <__sflush_r+0x6c>
   1204c:	4414                	lw	a3,8(s0)
   1204e:	6c3c                	ld	a5,88(s0)
   12050:	8e15                	sub	a2,a2,a3
   12052:	c399                	beqz	a5,12058 <__sflush_r+0x6c>
   12054:	583c                	lw	a5,112(s0)
   12056:	8e1d                	sub	a2,a2,a5
   12058:	4681                	li	a3,0
   1205a:	854e                	mv	a0,s3
   1205c:	9702                	jalr	a4
   1205e:	57fd                	li	a5,-1
   12060:	0cf51063          	bne	a0,a5,12120 <__sflush_r+0x134>
   12064:	0009a703          	lw	a4,0(s3)
   12068:	01041783          	lh	a5,16(s0)
   1206c:	cf6d                	beqz	a4,12166 <__sflush_r+0x17a>
   1206e:	46f5                	li	a3,29
   12070:	00d70563          	beq	a4,a3,1207a <__sflush_r+0x8e>
   12074:	46d9                	li	a3,22
   12076:	0ed71e63          	bne	a4,a3,12172 <__sflush_r+0x186>
   1207a:	6c14                	ld	a3,24(s0)
   1207c:	777d                	lui	a4,0xfffff
   1207e:	7ff70713          	addi	a4,a4,2047 # fffffffffffff7ff <__BSS_END__+0xfffffffffffe047f>
   12082:	8ff9                	and	a5,a5,a4
   12084:	00f41823          	sh	a5,16(s0)
   12088:	00042423          	sw	zero,8(s0)
   1208c:	e014                	sd	a3,0(s0)
   1208e:	6c2c                	ld	a1,88(s0)
   12090:	0099a023          	sw	s1,0(s3)
   12094:	c991                	beqz	a1,120a8 <__sflush_r+0xbc>
   12096:	07440793          	addi	a5,s0,116
   1209a:	00f58563          	beq	a1,a5,120a4 <__sflush_r+0xb8>
   1209e:	854e                	mv	a0,s3
   120a0:	4ea000ef          	jal	ra,1258a <_free_r>
   120a4:	04043c23          	sd	zero,88(s0)
   120a8:	4501                	li	a0,0
   120aa:	70a2                	ld	ra,40(sp)
   120ac:	7402                	ld	s0,32(sp)
   120ae:	64e2                	ld	s1,24(sp)
   120b0:	6942                	ld	s2,16(sp)
   120b2:	69a2                	ld	s3,8(sp)
   120b4:	6145                	addi	sp,sp,48
   120b6:	8082                	ret
   120b8:	0185b903          	ld	s2,24(a1)
   120bc:	fe0906e3          	beqz	s2,120a8 <__sflush_r+0xbc>
   120c0:	6184                	ld	s1,0(a1)
   120c2:	03079713          	slli	a4,a5,0x30
   120c6:	9341                	srli	a4,a4,0x30
   120c8:	8b0d                	andi	a4,a4,3
   120ca:	0125b023          	sd	s2,0(a1)
   120ce:	412484bb          	subw	s1,s1,s2
   120d2:	4781                	li	a5,0
   120d4:	e311                	bnez	a4,120d8 <__sflush_r+0xec>
   120d6:	519c                	lw	a5,32(a1)
   120d8:	c45c                	sw	a5,12(s0)
   120da:	00904663          	bgtz	s1,120e6 <__sflush_r+0xfa>
   120de:	b7e9                	j	120a8 <__sflush_r+0xbc>
   120e0:	992a                	add	s2,s2,a0
   120e2:	fc9053e3          	blez	s1,120a8 <__sflush_r+0xbc>
   120e6:	603c                	ld	a5,64(s0)
   120e8:	780c                	ld	a1,48(s0)
   120ea:	86a6                	mv	a3,s1
   120ec:	864a                	mv	a2,s2
   120ee:	854e                	mv	a0,s3
   120f0:	9782                	jalr	a5
   120f2:	9c89                	subw	s1,s1,a0
   120f4:	fea046e3          	bgtz	a0,120e0 <__sflush_r+0xf4>
   120f8:	01045783          	lhu	a5,16(s0)
   120fc:	70a2                	ld	ra,40(sp)
   120fe:	64e2                	ld	s1,24(sp)
   12100:	0407e793          	ori	a5,a5,64
   12104:	00f41823          	sh	a5,16(s0)
   12108:	7402                	ld	s0,32(sp)
   1210a:	6942                	ld	s2,16(sp)
   1210c:	69a2                	ld	s3,8(sp)
   1210e:	557d                	li	a0,-1
   12110:	6145                	addi	sp,sp,48
   12112:	8082                	ret
   12114:	59b8                	lw	a4,112(a1)
   12116:	f0e041e3          	bgtz	a4,12018 <__sflush_r+0x2c>
   1211a:	b779                	j	120a8 <__sflush_r+0xbc>
   1211c:	6850                	ld	a2,144(s0)
   1211e:	b72d                	j	12048 <__sflush_r+0x5c>
   12120:	01045783          	lhu	a5,16(s0)
   12124:	777d                	lui	a4,0xfffff
   12126:	7ff70713          	addi	a4,a4,2047 # fffffffffffff7ff <__BSS_END__+0xfffffffffffe047f>
   1212a:	8ff9                	and	a5,a5,a4
   1212c:	6c14                	ld	a3,24(s0)
   1212e:	0107979b          	slliw	a5,a5,0x10
   12132:	4107d79b          	sraiw	a5,a5,0x10
   12136:	6705                	lui	a4,0x1
   12138:	00f41823          	sh	a5,16(s0)
   1213c:	00042423          	sw	zero,8(s0)
   12140:	e014                	sd	a3,0(s0)
   12142:	8ff9                	and	a5,a5,a4
   12144:	d7a9                	beqz	a5,1208e <__sflush_r+0xa2>
   12146:	e848                	sd	a0,144(s0)
   12148:	b799                	j	1208e <__sflush_r+0xa2>
   1214a:	0009a783          	lw	a5,0(s3)
   1214e:	ee0789e3          	beqz	a5,12040 <__sflush_r+0x54>
   12152:	4775                	li	a4,29
   12154:	00e78563          	beq	a5,a4,1215e <__sflush_r+0x172>
   12158:	4759                	li	a4,22
   1215a:	f8e79fe3          	bne	a5,a4,120f8 <__sflush_r+0x10c>
   1215e:	0099a023          	sw	s1,0(s3)
   12162:	4501                	li	a0,0
   12164:	b799                	j	120aa <__sflush_r+0xbe>
   12166:	777d                	lui	a4,0xfffff
   12168:	7ff70713          	addi	a4,a4,2047 # fffffffffffff7ff <__BSS_END__+0xfffffffffffe047f>
   1216c:	6c14                	ld	a3,24(s0)
   1216e:	8ff9                	and	a5,a5,a4
   12170:	b7d9                	j	12136 <__sflush_r+0x14a>
   12172:	0407e793          	ori	a5,a5,64
   12176:	00f41823          	sh	a5,16(s0)
   1217a:	557d                	li	a0,-1
   1217c:	b73d                	j	120aa <__sflush_r+0xbe>

000000000001217e <_fflush_r>:
   1217e:	1101                	addi	sp,sp,-32
   12180:	e822                	sd	s0,16(sp)
   12182:	ec06                	sd	ra,24(sp)
   12184:	842a                	mv	s0,a0
   12186:	c119                	beqz	a0,1218c <_fflush_r+0xe>
   12188:	493c                	lw	a5,80(a0)
   1218a:	cb89                	beqz	a5,1219c <_fflush_r+0x1e>
   1218c:	01059783          	lh	a5,16(a1)
   12190:	ef89                	bnez	a5,121aa <_fflush_r+0x2c>
   12192:	60e2                	ld	ra,24(sp)
   12194:	6442                	ld	s0,16(sp)
   12196:	4501                	li	a0,0
   12198:	6105                	addi	sp,sp,32
   1219a:	8082                	ret
   1219c:	e42e                	sd	a1,8(sp)
   1219e:	2bc000ef          	jal	ra,1245a <__sinit>
   121a2:	65a2                	ld	a1,8(sp)
   121a4:	01059783          	lh	a5,16(a1)
   121a8:	d7ed                	beqz	a5,12192 <_fflush_r+0x14>
   121aa:	8522                	mv	a0,s0
   121ac:	6442                	ld	s0,16(sp)
   121ae:	60e2                	ld	ra,24(sp)
   121b0:	6105                	addi	sp,sp,32
   121b2:	bd2d                	j	11fec <__sflush_r>

00000000000121b4 <fflush>:
   121b4:	cd1d                	beqz	a0,121f2 <fflush+0x3e>
   121b6:	1101                	addi	sp,sp,-32
   121b8:	e822                	sd	s0,16(sp)
   121ba:	842a                	mv	s0,a0
   121bc:	7581b503          	ld	a0,1880(gp) # 1f2d8 <_impure_ptr>
   121c0:	ec06                	sd	ra,24(sp)
   121c2:	c119                	beqz	a0,121c8 <fflush+0x14>
   121c4:	493c                	lw	a5,80(a0)
   121c6:	cf91                	beqz	a5,121e2 <fflush+0x2e>
   121c8:	01041783          	lh	a5,16(s0)
   121cc:	e791                	bnez	a5,121d8 <fflush+0x24>
   121ce:	60e2                	ld	ra,24(sp)
   121d0:	6442                	ld	s0,16(sp)
   121d2:	4501                	li	a0,0
   121d4:	6105                	addi	sp,sp,32
   121d6:	8082                	ret
   121d8:	85a2                	mv	a1,s0
   121da:	6442                	ld	s0,16(sp)
   121dc:	60e2                	ld	ra,24(sp)
   121de:	6105                	addi	sp,sp,32
   121e0:	b531                	j	11fec <__sflush_r>
   121e2:	e42a                	sd	a0,8(sp)
   121e4:	276000ef          	jal	ra,1245a <__sinit>
   121e8:	01041783          	lh	a5,16(s0)
   121ec:	6522                	ld	a0,8(sp)
   121ee:	d3e5                	beqz	a5,121ce <fflush+0x1a>
   121f0:	b7e5                	j	121d8 <fflush+0x24>
   121f2:	7481b503          	ld	a0,1864(gp) # 1f2c8 <_global_impure_ptr>
   121f6:	65c9                	lui	a1,0x12
   121f8:	17e58593          	addi	a1,a1,382 # 1217e <_fflush_r>
   121fc:	a58d                	j	1285e <_fwalk_reent>

00000000000121fe <__fp_lock>:
   121fe:	4501                	li	a0,0
   12200:	8082                	ret

0000000000012202 <_cleanup_r>:
   12202:	65e5                	lui	a1,0x19
   12204:	b8058593          	addi	a1,a1,-1152 # 18b80 <_fclose_r>
   12208:	ad99                	j	1285e <_fwalk_reent>

000000000001220a <__fp_unlock>:
   1220a:	4501                	li	a0,0
   1220c:	8082                	ret

000000000001220e <__sinit.part.0>:
   1220e:	7139                	addi	sp,sp,-64
   12210:	67c9                	lui	a5,0x12
   12212:	fc06                	sd	ra,56(sp)
   12214:	f822                	sd	s0,48(sp)
   12216:	f426                	sd	s1,40(sp)
   12218:	f04a                	sd	s2,32(sp)
   1221a:	ec4e                	sd	s3,24(sp)
   1221c:	e852                	sd	s4,16(sp)
   1221e:	e456                	sd	s5,8(sp)
   12220:	e05a                	sd	s6,0(sp)
   12222:	6500                	ld	s0,8(a0)
   12224:	20278793          	addi	a5,a5,514 # 12202 <_cleanup_r>
   12228:	ed3c                	sd	a5,88(a0)
   1222a:	53850713          	addi	a4,a0,1336
   1222e:	478d                	li	a5,3
   12230:	52e53823          	sd	a4,1328(a0)
   12234:	52f52423          	sw	a5,1320(a0)
   12238:	52053023          	sd	zero,1312(a0)
   1223c:	4791                	li	a5,4
   1223e:	892a                	mv	s2,a0
   12240:	c81c                	sw	a5,16(s0)
   12242:	4621                	li	a2,8
   12244:	4581                	li	a1,0
   12246:	0a042623          	sw	zero,172(s0)
   1224a:	00043023          	sd	zero,0(s0)
   1224e:	00043423          	sd	zero,8(s0)
   12252:	00043c23          	sd	zero,24(s0)
   12256:	02042023          	sw	zero,32(s0)
   1225a:	02042423          	sw	zero,40(s0)
   1225e:	0a440513          	addi	a0,s0,164
   12262:	f91fd0ef          	jal	ra,101f2 <memset>
   12266:	6b59                	lui	s6,0x16
   12268:	01093483          	ld	s1,16(s2)
   1226c:	6ad9                	lui	s5,0x16
   1226e:	6a59                	lui	s4,0x16
   12270:	69d9                	lui	s3,0x16
   12272:	f42b0b13          	addi	s6,s6,-190 # 15f42 <__sread>
   12276:	f7ea8a93          	addi	s5,s5,-130 # 15f7e <__swrite>
   1227a:	fd2a0a13          	addi	s4,s4,-46 # 15fd2 <__sseek>
   1227e:	01498993          	addi	s3,s3,20 # 16014 <__sclose>
   12282:	67c1                	lui	a5,0x10
   12284:	03643c23          	sd	s6,56(s0)
   12288:	05543023          	sd	s5,64(s0)
   1228c:	05443423          	sd	s4,72(s0)
   12290:	05343823          	sd	s3,80(s0)
   12294:	f800                	sd	s0,48(s0)
   12296:	07a5                	addi	a5,a5,9
   12298:	c89c                	sw	a5,16(s1)
   1229a:	4621                	li	a2,8
   1229c:	4581                	li	a1,0
   1229e:	0a04a623          	sw	zero,172(s1)
   122a2:	0004b023          	sd	zero,0(s1)
   122a6:	0004b423          	sd	zero,8(s1)
   122aa:	0004bc23          	sd	zero,24(s1)
   122ae:	0204a023          	sw	zero,32(s1)
   122b2:	0204a423          	sw	zero,40(s1)
   122b6:	0a448513          	addi	a0,s1,164
   122ba:	f39fd0ef          	jal	ra,101f2 <memset>
   122be:	01893403          	ld	s0,24(s2)
   122c2:	000207b7          	lui	a5,0x20
   122c6:	0364bc23          	sd	s6,56(s1)
   122ca:	0554b023          	sd	s5,64(s1)
   122ce:	0544b423          	sd	s4,72(s1)
   122d2:	0534b823          	sd	s3,80(s1)
   122d6:	f884                	sd	s1,48(s1)
   122d8:	07c9                	addi	a5,a5,18
   122da:	c81c                	sw	a5,16(s0)
   122dc:	0a042623          	sw	zero,172(s0)
   122e0:	00043023          	sd	zero,0(s0)
   122e4:	00043423          	sd	zero,8(s0)
   122e8:	00043c23          	sd	zero,24(s0)
   122ec:	02042023          	sw	zero,32(s0)
   122f0:	02042423          	sw	zero,40(s0)
   122f4:	0a440513          	addi	a0,s0,164
   122f8:	4621                	li	a2,8
   122fa:	4581                	li	a1,0
   122fc:	ef7fd0ef          	jal	ra,101f2 <memset>
   12300:	70e2                	ld	ra,56(sp)
   12302:	03643c23          	sd	s6,56(s0)
   12306:	05543023          	sd	s5,64(s0)
   1230a:	05443423          	sd	s4,72(s0)
   1230e:	05343823          	sd	s3,80(s0)
   12312:	f800                	sd	s0,48(s0)
   12314:	7442                	ld	s0,48(sp)
   12316:	4785                	li	a5,1
   12318:	04f92823          	sw	a5,80(s2)
   1231c:	74a2                	ld	s1,40(sp)
   1231e:	7902                	ld	s2,32(sp)
   12320:	69e2                	ld	s3,24(sp)
   12322:	6a42                	ld	s4,16(sp)
   12324:	6aa2                	ld	s5,8(sp)
   12326:	6b02                	ld	s6,0(sp)
   12328:	6121                	addi	sp,sp,64
   1232a:	8082                	ret

000000000001232c <__sfmoreglue>:
   1232c:	1101                	addi	sp,sp,-32
   1232e:	e426                	sd	s1,8(sp)
   12330:	0b000793          	li	a5,176
   12334:	fff5849b          	addiw	s1,a1,-1
   12338:	02f484b3          	mul	s1,s1,a5
   1233c:	e04a                	sd	s2,0(sp)
   1233e:	892e                	mv	s2,a1
   12340:	e822                	sd	s0,16(sp)
   12342:	ec06                	sd	ra,24(sp)
   12344:	0c848593          	addi	a1,s1,200
   12348:	770020ef          	jal	ra,14ab8 <_malloc_r>
   1234c:	842a                	mv	s0,a0
   1234e:	cd01                	beqz	a0,12366 <__sfmoreglue+0x3a>
   12350:	0561                	addi	a0,a0,24
   12352:	00043023          	sd	zero,0(s0)
   12356:	01242423          	sw	s2,8(s0)
   1235a:	e808                	sd	a0,16(s0)
   1235c:	0b048613          	addi	a2,s1,176
   12360:	4581                	li	a1,0
   12362:	e91fd0ef          	jal	ra,101f2 <memset>
   12366:	60e2                	ld	ra,24(sp)
   12368:	8522                	mv	a0,s0
   1236a:	6442                	ld	s0,16(sp)
   1236c:	64a2                	ld	s1,8(sp)
   1236e:	6902                	ld	s2,0(sp)
   12370:	6105                	addi	sp,sp,32
   12372:	8082                	ret

0000000000012374 <__sfp>:
   12374:	7179                	addi	sp,sp,-48
   12376:	ec26                	sd	s1,24(sp)
   12378:	7481b483          	ld	s1,1864(gp) # 1f2c8 <_global_impure_ptr>
   1237c:	e84a                	sd	s2,16(sp)
   1237e:	f406                	sd	ra,40(sp)
   12380:	48bc                	lw	a5,80(s1)
   12382:	f022                	sd	s0,32(sp)
   12384:	e44e                	sd	s3,8(sp)
   12386:	e052                	sd	s4,0(sp)
   12388:	892a                	mv	s2,a0
   1238a:	c3d9                	beqz	a5,12410 <__sfp+0x9c>
   1238c:	52048493          	addi	s1,s1,1312
   12390:	0b000993          	li	s3,176
   12394:	4a11                	li	s4,4
   12396:	449c                	lw	a5,8(s1)
   12398:	6880                	ld	s0,16(s1)
   1239a:	06f05763          	blez	a5,12408 <__sfp+0x94>
   1239e:	37fd                	addiw	a5,a5,-1
   123a0:	1782                	slli	a5,a5,0x20
   123a2:	9381                	srli	a5,a5,0x20
   123a4:	0785                	addi	a5,a5,1
   123a6:	033787b3          	mul	a5,a5,s3
   123aa:	97a2                	add	a5,a5,s0
   123ac:	a029                	j	123b6 <__sfp+0x42>
   123ae:	0b040413          	addi	s0,s0,176
   123b2:	04f40b63          	beq	s0,a5,12408 <__sfp+0x94>
   123b6:	01041703          	lh	a4,16(s0)
   123ba:	fb75                	bnez	a4,123ae <__sfp+0x3a>
   123bc:	77c1                	lui	a5,0xffff0
   123be:	0785                	addi	a5,a5,1
   123c0:	0a042623          	sw	zero,172(s0)
   123c4:	00043023          	sd	zero,0(s0)
   123c8:	00043423          	sd	zero,8(s0)
   123cc:	c81c                	sw	a5,16(s0)
   123ce:	00043c23          	sd	zero,24(s0)
   123d2:	02042023          	sw	zero,32(s0)
   123d6:	02042423          	sw	zero,40(s0)
   123da:	4621                	li	a2,8
   123dc:	4581                	li	a1,0
   123de:	0a440513          	addi	a0,s0,164
   123e2:	e11fd0ef          	jal	ra,101f2 <memset>
   123e6:	04043c23          	sd	zero,88(s0)
   123ea:	06042023          	sw	zero,96(s0)
   123ee:	06043c23          	sd	zero,120(s0)
   123f2:	08042023          	sw	zero,128(s0)
   123f6:	70a2                	ld	ra,40(sp)
   123f8:	8522                	mv	a0,s0
   123fa:	7402                	ld	s0,32(sp)
   123fc:	64e2                	ld	s1,24(sp)
   123fe:	6942                	ld	s2,16(sp)
   12400:	69a2                	ld	s3,8(sp)
   12402:	6a02                	ld	s4,0(sp)
   12404:	6145                	addi	sp,sp,48
   12406:	8082                	ret
   12408:	6080                	ld	s0,0(s1)
   1240a:	c419                	beqz	s0,12418 <__sfp+0xa4>
   1240c:	84a2                	mv	s1,s0
   1240e:	b761                	j	12396 <__sfp+0x22>
   12410:	8526                	mv	a0,s1
   12412:	dfdff0ef          	jal	ra,1220e <__sinit.part.0>
   12416:	bf9d                	j	1238c <__sfp+0x18>
   12418:	2d800593          	li	a1,728
   1241c:	854a                	mv	a0,s2
   1241e:	69a020ef          	jal	ra,14ab8 <_malloc_r>
   12422:	842a                	mv	s0,a0
   12424:	cd19                	beqz	a0,12442 <__sfp+0xce>
   12426:	0561                	addi	a0,a0,24
   12428:	00043023          	sd	zero,0(s0)
   1242c:	01442423          	sw	s4,8(s0)
   12430:	e808                	sd	a0,16(s0)
   12432:	2c000613          	li	a2,704
   12436:	4581                	li	a1,0
   12438:	dbbfd0ef          	jal	ra,101f2 <memset>
   1243c:	e080                	sd	s0,0(s1)
   1243e:	84a2                	mv	s1,s0
   12440:	bf99                	j	12396 <__sfp+0x22>
   12442:	0004b023          	sd	zero,0(s1)
   12446:	47b1                	li	a5,12
   12448:	00f92023          	sw	a5,0(s2)
   1244c:	b76d                	j	123f6 <__sfp+0x82>

000000000001244e <_cleanup>:
   1244e:	7481b503          	ld	a0,1864(gp) # 1f2c8 <_global_impure_ptr>
   12452:	65e5                	lui	a1,0x19
   12454:	b8058593          	addi	a1,a1,-1152 # 18b80 <_fclose_r>
   12458:	a119                	j	1285e <_fwalk_reent>

000000000001245a <__sinit>:
   1245a:	493c                	lw	a5,80(a0)
   1245c:	c391                	beqz	a5,12460 <__sinit+0x6>
   1245e:	8082                	ret
   12460:	b37d                	j	1220e <__sinit.part.0>

0000000000012462 <__sfp_lock_acquire>:
   12462:	8082                	ret

0000000000012464 <__sfp_lock_release>:
   12464:	8082                	ret

0000000000012466 <__sinit_lock_acquire>:
   12466:	8082                	ret

0000000000012468 <__sinit_lock_release>:
   12468:	8082                	ret

000000000001246a <__fp_lock_all>:
   1246a:	7581b503          	ld	a0,1880(gp) # 1f2d8 <_impure_ptr>
   1246e:	65c9                	lui	a1,0x12
   12470:	1fe58593          	addi	a1,a1,510 # 121fe <__fp_lock>
   12474:	a6a5                	j	127dc <_fwalk>

0000000000012476 <__fp_unlock_all>:
   12476:	7581b503          	ld	a0,1880(gp) # 1f2d8 <_impure_ptr>
   1247a:	65c9                	lui	a1,0x12
   1247c:	20a58593          	addi	a1,a1,522 # 1220a <__fp_unlock>
   12480:	aeb1                	j	127dc <_fwalk>

0000000000012482 <__libc_fini_array>:
   12482:	1101                	addi	sp,sp,-32
   12484:	e822                	sd	s0,16(sp)
   12486:	67f9                	lui	a5,0x1e
   12488:	6479                	lui	s0,0x1e
   1248a:	19078793          	addi	a5,a5,400 # 1e190 <__do_global_dtors_aux_fini_array_entry>
   1248e:	19840413          	addi	s0,s0,408 # 1e198 <impure_data>
   12492:	8c1d                	sub	s0,s0,a5
   12494:	e426                	sd	s1,8(sp)
   12496:	ec06                	sd	ra,24(sp)
   12498:	40345493          	srai	s1,s0,0x3
   1249c:	c881                	beqz	s1,124ac <__libc_fini_array+0x2a>
   1249e:	1461                	addi	s0,s0,-8
   124a0:	943e                	add	s0,s0,a5
   124a2:	601c                	ld	a5,0(s0)
   124a4:	14fd                	addi	s1,s1,-1
   124a6:	1461                	addi	s0,s0,-8
   124a8:	9782                	jalr	a5
   124aa:	fce5                	bnez	s1,124a2 <__libc_fini_array+0x20>
   124ac:	60e2                	ld	ra,24(sp)
   124ae:	6442                	ld	s0,16(sp)
   124b0:	64a2                	ld	s1,8(sp)
   124b2:	6105                	addi	sp,sp,32
   124b4:	8082                	ret

00000000000124b6 <_malloc_trim_r>:
   124b6:	7179                	addi	sp,sp,-48
   124b8:	e44e                	sd	s3,8(sp)
   124ba:	0001f9b7          	lui	s3,0x1f
   124be:	f022                	sd	s0,32(sp)
   124c0:	ec26                	sd	s1,24(sp)
   124c2:	e84a                	sd	s2,16(sp)
   124c4:	e052                	sd	s4,0(sp)
   124c6:	f406                	sd	ra,40(sp)
   124c8:	8a2e                	mv	s4,a1
   124ca:	892a                	mv	s2,a0
   124cc:	8e098993          	addi	s3,s3,-1824 # 1e8e0 <__malloc_av_>
   124d0:	48b020ef          	jal	ra,1515a <__malloc_lock>
   124d4:	0109b703          	ld	a4,16(s3)
   124d8:	6785                	lui	a5,0x1
   124da:	fdf78413          	addi	s0,a5,-33 # fdf <register_fini-0xf0d1>
   124de:	6704                	ld	s1,8(a4)
   124e0:	41440433          	sub	s0,s0,s4
   124e4:	98f1                	andi	s1,s1,-4
   124e6:	9426                	add	s0,s0,s1
   124e8:	8031                	srli	s0,s0,0xc
   124ea:	147d                	addi	s0,s0,-1
   124ec:	0432                	slli	s0,s0,0xc
   124ee:	00f44b63          	blt	s0,a5,12504 <_malloc_trim_r+0x4e>
   124f2:	4581                	li	a1,0
   124f4:	854a                	mv	a0,s2
   124f6:	18b030ef          	jal	ra,15e80 <_sbrk_r>
   124fa:	0109b783          	ld	a5,16(s3)
   124fe:	97a6                	add	a5,a5,s1
   12500:	00f50e63          	beq	a0,a5,1251c <_malloc_trim_r+0x66>
   12504:	854a                	mv	a0,s2
   12506:	457020ef          	jal	ra,1515c <__malloc_unlock>
   1250a:	70a2                	ld	ra,40(sp)
   1250c:	7402                	ld	s0,32(sp)
   1250e:	64e2                	ld	s1,24(sp)
   12510:	6942                	ld	s2,16(sp)
   12512:	69a2                	ld	s3,8(sp)
   12514:	6a02                	ld	s4,0(sp)
   12516:	4501                	li	a0,0
   12518:	6145                	addi	sp,sp,48
   1251a:	8082                	ret
   1251c:	408005b3          	neg	a1,s0
   12520:	854a                	mv	a0,s2
   12522:	15f030ef          	jal	ra,15e80 <_sbrk_r>
   12526:	57fd                	li	a5,-1
   12528:	02f50b63          	beq	a0,a5,1255e <_malloc_trim_r+0xa8>
   1252c:	0001f7b7          	lui	a5,0x1f
   12530:	35878793          	addi	a5,a5,856 # 1f358 <__malloc_current_mallinfo>
   12534:	4398                	lw	a4,0(a5)
   12536:	0109b683          	ld	a3,16(s3)
   1253a:	8c81                	sub	s1,s1,s0
   1253c:	0014e493          	ori	s1,s1,1
   12540:	9f01                	subw	a4,a4,s0
   12542:	854a                	mv	a0,s2
   12544:	e684                	sd	s1,8(a3)
   12546:	c398                	sw	a4,0(a5)
   12548:	415020ef          	jal	ra,1515c <__malloc_unlock>
   1254c:	70a2                	ld	ra,40(sp)
   1254e:	7402                	ld	s0,32(sp)
   12550:	64e2                	ld	s1,24(sp)
   12552:	6942                	ld	s2,16(sp)
   12554:	69a2                	ld	s3,8(sp)
   12556:	6a02                	ld	s4,0(sp)
   12558:	4505                	li	a0,1
   1255a:	6145                	addi	sp,sp,48
   1255c:	8082                	ret
   1255e:	4581                	li	a1,0
   12560:	854a                	mv	a0,s2
   12562:	11f030ef          	jal	ra,15e80 <_sbrk_r>
   12566:	0109b703          	ld	a4,16(s3)
   1256a:	46fd                	li	a3,31
   1256c:	40e507b3          	sub	a5,a0,a4
   12570:	f8f6dae3          	bge	a3,a5,12504 <_malloc_trim_r+0x4e>
   12574:	7601b683          	ld	a3,1888(gp) # 1f2e0 <__malloc_sbrk_base>
   12578:	0017e793          	ori	a5,a5,1
   1257c:	e71c                	sd	a5,8(a4)
   1257e:	8d15                	sub	a0,a0,a3
   12580:	0001f6b7          	lui	a3,0x1f
   12584:	34a6ac23          	sw	a0,856(a3) # 1f358 <__malloc_current_mallinfo>
   12588:	bfb5                	j	12504 <_malloc_trim_r+0x4e>

000000000001258a <_free_r>:
   1258a:	c9e5                	beqz	a1,1267a <_free_r+0xf0>
   1258c:	1101                	addi	sp,sp,-32
   1258e:	e822                	sd	s0,16(sp)
   12590:	e426                	sd	s1,8(sp)
   12592:	842e                	mv	s0,a1
   12594:	84aa                	mv	s1,a0
   12596:	ec06                	sd	ra,24(sp)
   12598:	3c3020ef          	jal	ra,1515a <__malloc_lock>
   1259c:	ff843503          	ld	a0,-8(s0)
   125a0:	ff040713          	addi	a4,s0,-16
   125a4:	0001f5b7          	lui	a1,0x1f
   125a8:	ffe57793          	andi	a5,a0,-2
   125ac:	00f70633          	add	a2,a4,a5
   125b0:	8e058593          	addi	a1,a1,-1824 # 1e8e0 <__malloc_av_>
   125b4:	6614                	ld	a3,8(a2)
   125b6:	0105b803          	ld	a6,16(a1)
   125ba:	9af1                	andi	a3,a3,-4
   125bc:	14c80263          	beq	a6,a2,12700 <_free_r+0x176>
   125c0:	e614                	sd	a3,8(a2)
   125c2:	8905                	andi	a0,a0,1
   125c4:	00d60833          	add	a6,a2,a3
   125c8:	e149                	bnez	a0,1264a <_free_r+0xc0>
   125ca:	ff043303          	ld	t1,-16(s0)
   125ce:	00883803          	ld	a6,8(a6)
   125d2:	0001f537          	lui	a0,0x1f
   125d6:	40670733          	sub	a4,a4,t1
   125da:	01073883          	ld	a7,16(a4)
   125de:	8f050513          	addi	a0,a0,-1808 # 1e8f0 <__malloc_av_+0x10>
   125e2:	979a                	add	a5,a5,t1
   125e4:	00187813          	andi	a6,a6,1
   125e8:	0ea88963          	beq	a7,a0,126da <_free_r+0x150>
   125ec:	01873303          	ld	t1,24(a4)
   125f0:	0068bc23          	sd	t1,24(a7)
   125f4:	01133823          	sd	a7,16(t1)
   125f8:	14080e63          	beqz	a6,12754 <_free_r+0x1ca>
   125fc:	0017e693          	ori	a3,a5,1
   12600:	e714                	sd	a3,8(a4)
   12602:	e21c                	sd	a5,0(a2)
   12604:	1ff00693          	li	a3,511
   12608:	08f6e363          	bltu	a3,a5,1268e <_free_r+0x104>
   1260c:	838d                	srli	a5,a5,0x3
   1260e:	0017869b          	addiw	a3,a5,1
   12612:	0016969b          	slliw	a3,a3,0x1
   12616:	068e                	slli	a3,a3,0x3
   12618:	0085b803          	ld	a6,8(a1)
   1261c:	96ae                	add	a3,a3,a1
   1261e:	6288                	ld	a0,0(a3)
   12620:	4027d61b          	sraiw	a2,a5,0x2
   12624:	4785                	li	a5,1
   12626:	00c797b3          	sll	a5,a5,a2
   1262a:	0107e7b3          	or	a5,a5,a6
   1262e:	ff068613          	addi	a2,a3,-16
   12632:	ef10                	sd	a2,24(a4)
   12634:	eb08                	sd	a0,16(a4)
   12636:	e59c                	sd	a5,8(a1)
   12638:	e298                	sd	a4,0(a3)
   1263a:	ed18                	sd	a4,24(a0)
   1263c:	6442                	ld	s0,16(sp)
   1263e:	60e2                	ld	ra,24(sp)
   12640:	8526                	mv	a0,s1
   12642:	64a2                	ld	s1,8(sp)
   12644:	6105                	addi	sp,sp,32
   12646:	3170206f          	j	1515c <__malloc_unlock>
   1264a:	00883503          	ld	a0,8(a6)
   1264e:	8905                	andi	a0,a0,1
   12650:	e515                	bnez	a0,1267c <_free_r+0xf2>
   12652:	0001f537          	lui	a0,0x1f
   12656:	97b6                	add	a5,a5,a3
   12658:	8f050513          	addi	a0,a0,-1808 # 1e8f0 <__malloc_av_+0x10>
   1265c:	6a14                	ld	a3,16(a2)
   1265e:	0017e893          	ori	a7,a5,1
   12662:	00f70833          	add	a6,a4,a5
   12666:	10a68163          	beq	a3,a0,12768 <_free_r+0x1de>
   1266a:	6e10                	ld	a2,24(a2)
   1266c:	ee90                	sd	a2,24(a3)
   1266e:	ea14                	sd	a3,16(a2)
   12670:	01173423          	sd	a7,8(a4)
   12674:	00f83023          	sd	a5,0(a6)
   12678:	b771                	j	12604 <_free_r+0x7a>
   1267a:	8082                	ret
   1267c:	0017e693          	ori	a3,a5,1
   12680:	fed43c23          	sd	a3,-8(s0)
   12684:	e21c                	sd	a5,0(a2)
   12686:	1ff00693          	li	a3,511
   1268a:	f8f6f1e3          	bgeu	a3,a5,1260c <_free_r+0x82>
   1268e:	0097d693          	srli	a3,a5,0x9
   12692:	4611                	li	a2,4
   12694:	08d66f63          	bltu	a2,a3,12732 <_free_r+0x1a8>
   12698:	0067d693          	srli	a3,a5,0x6
   1269c:	0396851b          	addiw	a0,a3,57
   126a0:	0015151b          	slliw	a0,a0,0x1
   126a4:	0386861b          	addiw	a2,a3,56
   126a8:	050e                	slli	a0,a0,0x3
   126aa:	952e                	add	a0,a0,a1
   126ac:	6114                	ld	a3,0(a0)
   126ae:	1541                	addi	a0,a0,-16
   126b0:	0cd50563          	beq	a0,a3,1277a <_free_r+0x1f0>
   126b4:	6690                	ld	a2,8(a3)
   126b6:	9a71                	andi	a2,a2,-4
   126b8:	00c7f563          	bgeu	a5,a2,126c2 <_free_r+0x138>
   126bc:	6a94                	ld	a3,16(a3)
   126be:	fed51be3          	bne	a0,a3,126b4 <_free_r+0x12a>
   126c2:	6e88                	ld	a0,24(a3)
   126c4:	ef08                	sd	a0,24(a4)
   126c6:	eb14                	sd	a3,16(a4)
   126c8:	6442                	ld	s0,16(sp)
   126ca:	e918                	sd	a4,16(a0)
   126cc:	60e2                	ld	ra,24(sp)
   126ce:	8526                	mv	a0,s1
   126d0:	64a2                	ld	s1,8(sp)
   126d2:	ee98                	sd	a4,24(a3)
   126d4:	6105                	addi	sp,sp,32
   126d6:	2870206f          	j	1515c <__malloc_unlock>
   126da:	0e081c63          	bnez	a6,127d2 <_free_r+0x248>
   126de:	6e0c                	ld	a1,24(a2)
   126e0:	6a10                	ld	a2,16(a2)
   126e2:	96be                	add	a3,a3,a5
   126e4:	6442                	ld	s0,16(sp)
   126e6:	ee0c                	sd	a1,24(a2)
   126e8:	e990                	sd	a2,16(a1)
   126ea:	0016e793          	ori	a5,a3,1
   126ee:	60e2                	ld	ra,24(sp)
   126f0:	e71c                	sd	a5,8(a4)
   126f2:	8526                	mv	a0,s1
   126f4:	9736                	add	a4,a4,a3
   126f6:	64a2                	ld	s1,8(sp)
   126f8:	e314                	sd	a3,0(a4)
   126fa:	6105                	addi	sp,sp,32
   126fc:	2610206f          	j	1515c <__malloc_unlock>
   12700:	8905                	andi	a0,a0,1
   12702:	96be                	add	a3,a3,a5
   12704:	e909                	bnez	a0,12716 <_free_r+0x18c>
   12706:	ff043503          	ld	a0,-16(s0)
   1270a:	8f09                	sub	a4,a4,a0
   1270c:	6f1c                	ld	a5,24(a4)
   1270e:	6b10                	ld	a2,16(a4)
   12710:	96aa                	add	a3,a3,a0
   12712:	ee1c                	sd	a5,24(a2)
   12714:	eb90                	sd	a2,16(a5)
   12716:	0016e613          	ori	a2,a3,1
   1271a:	7681b783          	ld	a5,1896(gp) # 1f2e8 <__malloc_trim_threshold>
   1271e:	e710                	sd	a2,8(a4)
   12720:	e998                	sd	a4,16(a1)
   12722:	f0f6ede3          	bltu	a3,a5,1263c <_free_r+0xb2>
   12726:	7801b583          	ld	a1,1920(gp) # 1f300 <__malloc_top_pad>
   1272a:	8526                	mv	a0,s1
   1272c:	d8bff0ef          	jal	ra,124b6 <_malloc_trim_r>
   12730:	b731                	j	1263c <_free_r+0xb2>
   12732:	4651                	li	a2,20
   12734:	02d67263          	bgeu	a2,a3,12758 <_free_r+0x1ce>
   12738:	05400613          	li	a2,84
   1273c:	04d66a63          	bltu	a2,a3,12790 <_free_r+0x206>
   12740:	00c7d693          	srli	a3,a5,0xc
   12744:	06f6851b          	addiw	a0,a3,111
   12748:	0015151b          	slliw	a0,a0,0x1
   1274c:	06e6861b          	addiw	a2,a3,110
   12750:	050e                	slli	a0,a0,0x3
   12752:	bfa1                	j	126aa <_free_r+0x120>
   12754:	97b6                	add	a5,a5,a3
   12756:	b719                	j	1265c <_free_r+0xd2>
   12758:	05c6851b          	addiw	a0,a3,92
   1275c:	0015151b          	slliw	a0,a0,0x1
   12760:	05b6861b          	addiw	a2,a3,91
   12764:	050e                	slli	a0,a0,0x3
   12766:	b791                	j	126aa <_free_r+0x120>
   12768:	f598                	sd	a4,40(a1)
   1276a:	f198                	sd	a4,32(a1)
   1276c:	ef08                	sd	a0,24(a4)
   1276e:	eb08                	sd	a0,16(a4)
   12770:	01173423          	sd	a7,8(a4)
   12774:	00f83023          	sd	a5,0(a6)
   12778:	b5d1                	j	1263c <_free_r+0xb2>
   1277a:	0085b803          	ld	a6,8(a1)
   1277e:	4026561b          	sraiw	a2,a2,0x2
   12782:	4785                	li	a5,1
   12784:	00c797b3          	sll	a5,a5,a2
   12788:	0107e7b3          	or	a5,a5,a6
   1278c:	e59c                	sd	a5,8(a1)
   1278e:	bf1d                	j	126c4 <_free_r+0x13a>
   12790:	15400613          	li	a2,340
   12794:	00d66c63          	bltu	a2,a3,127ac <_free_r+0x222>
   12798:	00f7d693          	srli	a3,a5,0xf
   1279c:	0786851b          	addiw	a0,a3,120
   127a0:	0015151b          	slliw	a0,a0,0x1
   127a4:	0776861b          	addiw	a2,a3,119
   127a8:	050e                	slli	a0,a0,0x3
   127aa:	b701                	j	126aa <_free_r+0x120>
   127ac:	55400613          	li	a2,1364
   127b0:	00d66c63          	bltu	a2,a3,127c8 <_free_r+0x23e>
   127b4:	0127d693          	srli	a3,a5,0x12
   127b8:	07d6851b          	addiw	a0,a3,125
   127bc:	0015151b          	slliw	a0,a0,0x1
   127c0:	07c6861b          	addiw	a2,a3,124
   127c4:	050e                	slli	a0,a0,0x3
   127c6:	b5d5                	j	126aa <_free_r+0x120>
   127c8:	7f000513          	li	a0,2032
   127cc:	07e00613          	li	a2,126
   127d0:	bde9                	j	126aa <_free_r+0x120>
   127d2:	0017e693          	ori	a3,a5,1
   127d6:	e714                	sd	a3,8(a4)
   127d8:	e21c                	sd	a5,0(a2)
   127da:	b58d                	j	1263c <_free_r+0xb2>

00000000000127dc <_fwalk>:
   127dc:	715d                	addi	sp,sp,-80
   127de:	f84a                	sd	s2,48(sp)
   127e0:	f44e                	sd	s3,40(sp)
   127e2:	f052                	sd	s4,32(sp)
   127e4:	ec56                	sd	s5,24(sp)
   127e6:	e85a                	sd	s6,16(sp)
   127e8:	e45e                	sd	s7,8(sp)
   127ea:	e486                	sd	ra,72(sp)
   127ec:	e0a2                	sd	s0,64(sp)
   127ee:	fc26                	sd	s1,56(sp)
   127f0:	8a2e                	mv	s4,a1
   127f2:	52050913          	addi	s2,a0,1312
   127f6:	4b01                	li	s6,0
   127f8:	0b000a93          	li	s5,176
   127fc:	4b85                	li	s7,1
   127fe:	59fd                	li	s3,-1
   12800:	00892783          	lw	a5,8(s2)
   12804:	01093403          	ld	s0,16(s2)
   12808:	02f05b63          	blez	a5,1283e <_fwalk+0x62>
   1280c:	fff7849b          	addiw	s1,a5,-1
   12810:	1482                	slli	s1,s1,0x20
   12812:	9081                	srli	s1,s1,0x20
   12814:	0485                	addi	s1,s1,1
   12816:	035484b3          	mul	s1,s1,s5
   1281a:	94a2                	add	s1,s1,s0
   1281c:	01045783          	lhu	a5,16(s0)
   12820:	00fbfb63          	bgeu	s7,a5,12836 <_fwalk+0x5a>
   12824:	01241783          	lh	a5,18(s0)
   12828:	8522                	mv	a0,s0
   1282a:	01378663          	beq	a5,s3,12836 <_fwalk+0x5a>
   1282e:	9a02                	jalr	s4
   12830:	01656b33          	or	s6,a0,s6
   12834:	2b01                	sext.w	s6,s6
   12836:	0b040413          	addi	s0,s0,176
   1283a:	fe8491e3          	bne	s1,s0,1281c <_fwalk+0x40>
   1283e:	00093903          	ld	s2,0(s2)
   12842:	fa091fe3          	bnez	s2,12800 <_fwalk+0x24>
   12846:	60a6                	ld	ra,72(sp)
   12848:	6406                	ld	s0,64(sp)
   1284a:	74e2                	ld	s1,56(sp)
   1284c:	7942                	ld	s2,48(sp)
   1284e:	79a2                	ld	s3,40(sp)
   12850:	7a02                	ld	s4,32(sp)
   12852:	6ae2                	ld	s5,24(sp)
   12854:	6ba2                	ld	s7,8(sp)
   12856:	855a                	mv	a0,s6
   12858:	6b42                	ld	s6,16(sp)
   1285a:	6161                	addi	sp,sp,80
   1285c:	8082                	ret

000000000001285e <_fwalk_reent>:
   1285e:	715d                	addi	sp,sp,-80
   12860:	f84a                	sd	s2,48(sp)
   12862:	f44e                	sd	s3,40(sp)
   12864:	f052                	sd	s4,32(sp)
   12866:	ec56                	sd	s5,24(sp)
   12868:	e85a                	sd	s6,16(sp)
   1286a:	e45e                	sd	s7,8(sp)
   1286c:	e062                	sd	s8,0(sp)
   1286e:	e486                	sd	ra,72(sp)
   12870:	e0a2                	sd	s0,64(sp)
   12872:	fc26                	sd	s1,56(sp)
   12874:	8c2a                	mv	s8,a0
   12876:	8a2e                	mv	s4,a1
   12878:	52050913          	addi	s2,a0,1312
   1287c:	4b01                	li	s6,0
   1287e:	0b000a93          	li	s5,176
   12882:	4b85                	li	s7,1
   12884:	59fd                	li	s3,-1
   12886:	00892783          	lw	a5,8(s2)
   1288a:	01093403          	ld	s0,16(s2)
   1288e:	02f05c63          	blez	a5,128c6 <_fwalk_reent+0x68>
   12892:	fff7849b          	addiw	s1,a5,-1
   12896:	1482                	slli	s1,s1,0x20
   12898:	9081                	srli	s1,s1,0x20
   1289a:	0485                	addi	s1,s1,1
   1289c:	035484b3          	mul	s1,s1,s5
   128a0:	94a2                	add	s1,s1,s0
   128a2:	01045783          	lhu	a5,16(s0)
   128a6:	00fbfc63          	bgeu	s7,a5,128be <_fwalk_reent+0x60>
   128aa:	01241783          	lh	a5,18(s0)
   128ae:	85a2                	mv	a1,s0
   128b0:	8562                	mv	a0,s8
   128b2:	01378663          	beq	a5,s3,128be <_fwalk_reent+0x60>
   128b6:	9a02                	jalr	s4
   128b8:	01656b33          	or	s6,a0,s6
   128bc:	2b01                	sext.w	s6,s6
   128be:	0b040413          	addi	s0,s0,176
   128c2:	fe8490e3          	bne	s1,s0,128a2 <_fwalk_reent+0x44>
   128c6:	00093903          	ld	s2,0(s2)
   128ca:	fa091ee3          	bnez	s2,12886 <_fwalk_reent+0x28>
   128ce:	60a6                	ld	ra,72(sp)
   128d0:	6406                	ld	s0,64(sp)
   128d2:	74e2                	ld	s1,56(sp)
   128d4:	7942                	ld	s2,48(sp)
   128d6:	79a2                	ld	s3,40(sp)
   128d8:	7a02                	ld	s4,32(sp)
   128da:	6ae2                	ld	s5,24(sp)
   128dc:	6ba2                	ld	s7,8(sp)
   128de:	6c02                	ld	s8,0(sp)
   128e0:	855a                	mv	a0,s6
   128e2:	6b42                	ld	s6,16(sp)
   128e4:	6161                	addi	sp,sp,80
   128e6:	8082                	ret

00000000000128e8 <eshdn1>:
   128e8:	00450693          	addi	a3,a0,4
   128ec:	4781                	li	a5,0
   128ee:	0569                	addi	a0,a0,26
   128f0:	7861                	lui	a6,0xffff8
   128f2:	a811                	j	12906 <eshdn1+0x1e>
   128f4:	0017979b          	slliw	a5,a5,0x1
   128f8:	00e69023          	sh	a4,0(a3)
   128fc:	17c2                	slli	a5,a5,0x30
   128fe:	0689                	addi	a3,a3,2
   12900:	93c1                	srli	a5,a5,0x30
   12902:	02d50863          	beq	a0,a3,12932 <eshdn1+0x4a>
   12906:	0006d703          	lhu	a4,0(a3)
   1290a:	00177613          	andi	a2,a4,1
   1290e:	c219                	beqz	a2,12914 <eshdn1+0x2c>
   12910:	0017e793          	ori	a5,a5,1
   12914:	8305                	srli	a4,a4,0x1
   12916:	0027f613          	andi	a2,a5,2
   1291a:	010765b3          	or	a1,a4,a6
   1291e:	da79                	beqz	a2,128f4 <eshdn1+0xc>
   12920:	0017979b          	slliw	a5,a5,0x1
   12924:	00b69023          	sh	a1,0(a3)
   12928:	17c2                	slli	a5,a5,0x30
   1292a:	0689                	addi	a3,a3,2
   1292c:	93c1                	srli	a5,a5,0x30
   1292e:	fcd51ce3          	bne	a0,a3,12906 <eshdn1+0x1e>
   12932:	8082                	ret

0000000000012934 <eshup1>:
   12934:	01850693          	addi	a3,a0,24
   12938:	4701                	li	a4,0
   1293a:	0509                	addi	a0,a0,2
   1293c:	a811                	j	12950 <eshup1+0x1c>
   1293e:	0017171b          	slliw	a4,a4,0x1
   12942:	00f69023          	sh	a5,0(a3)
   12946:	1742                	slli	a4,a4,0x30
   12948:	16f9                	addi	a3,a3,-2
   1294a:	9341                	srli	a4,a4,0x30
   1294c:	02d50b63          	beq	a0,a3,12982 <eshup1+0x4e>
   12950:	0006d783          	lhu	a5,0(a3)
   12954:	00f7d613          	srli	a2,a5,0xf
   12958:	0017979b          	slliw	a5,a5,0x1
   1295c:	c219                	beqz	a2,12962 <eshup1+0x2e>
   1295e:	00176713          	ori	a4,a4,1
   12962:	17c2                	slli	a5,a5,0x30
   12964:	93c1                	srli	a5,a5,0x30
   12966:	00277613          	andi	a2,a4,2
   1296a:	0017e593          	ori	a1,a5,1
   1296e:	da61                	beqz	a2,1293e <eshup1+0xa>
   12970:	0017171b          	slliw	a4,a4,0x1
   12974:	00b69023          	sh	a1,0(a3)
   12978:	1742                	slli	a4,a4,0x30
   1297a:	16f9                	addi	a3,a3,-2
   1297c:	9341                	srli	a4,a4,0x30
   1297e:	fcd519e3          	bne	a0,a3,12950 <eshup1+0x1c>
   12982:	8082                	ret

0000000000012984 <m16m>:
   12984:	1101                	addi	sp,sp,-32
   12986:	6e41                	lui	t3,0x10
   12988:	00011b23          	sh	zero,22(sp)
   1298c:	00011c23          	sh	zero,24(sp)
   12990:	05e1                	addi	a1,a1,24
   12992:	083c                	addi	a5,sp,24
   12994:	00410813          	addi	a6,sp,4
   12998:	1e7d                	addi	t3,t3,-1
   1299a:	0005d703          	lhu	a4,0(a1)
   1299e:	17f9                	addi	a5,a5,-2
   129a0:	15f9                	addi	a1,a1,-2
   129a2:	c705                	beqz	a4,129ca <m16m+0x46>
   129a4:	02a70733          	mul	a4,a4,a0
   129a8:	0027d883          	lhu	a7,2(a5)
   129ac:	0007d303          	lhu	t1,0(a5)
   129b0:	01c776b3          	and	a3,a4,t3
   129b4:	96c6                	add	a3,a3,a7
   129b6:	8341                	srli	a4,a4,0x10
   129b8:	0106d893          	srli	a7,a3,0x10
   129bc:	971a                	add	a4,a4,t1
   129be:	9746                	add	a4,a4,a7
   129c0:	00e79023          	sh	a4,0(a5)
   129c4:	00d79123          	sh	a3,2(a5)
   129c8:	8341                	srli	a4,a4,0x10
   129ca:	fee79f23          	sh	a4,-2(a5)
   129ce:	fd0796e3          	bne	a5,a6,1299a <m16m+0x16>
   129d2:	0611                	addi	a2,a2,4
   129d4:	01a10693          	addi	a3,sp,26
   129d8:	0007d703          	lhu	a4,0(a5)
   129dc:	0789                	addi	a5,a5,2
   129de:	0609                	addi	a2,a2,2
   129e0:	fee61f23          	sh	a4,-2(a2)
   129e4:	fed79ae3          	bne	a5,a3,129d8 <m16m+0x54>
   129e8:	6105                	addi	sp,sp,32
   129ea:	8082                	ret

00000000000129ec <emovo.constprop.0>:
   129ec:	00055703          	lhu	a4,0(a0)
   129f0:	00255783          	lhu	a5,2(a0)
   129f4:	c319                	beqz	a4,129fa <emovo.constprop.0+0xe>
   129f6:	6721                	lui	a4,0x8
   129f8:	8fd9                	or	a5,a5,a4
   129fa:	00f59923          	sh	a5,18(a1)
   129fe:	00255703          	lhu	a4,2(a0)
   12a02:	67a1                	lui	a5,0x8
   12a04:	17fd                	addi	a5,a5,-1
   12a06:	00f70f63          	beq	a4,a5,12a24 <emovo.constprop.0+0x38>
   12a0a:	00650793          	addi	a5,a0,6
   12a0e:	05c1                	addi	a1,a1,16
   12a10:	0561                	addi	a0,a0,24
   12a12:	0007d703          	lhu	a4,0(a5) # 8000 <register_fini-0x80b0>
   12a16:	0789                	addi	a5,a5,2
   12a18:	15f9                	addi	a1,a1,-2
   12a1a:	00e59123          	sh	a4,2(a1)
   12a1e:	fea79ae3          	bne	a5,a0,12a12 <emovo.constprop.0+0x26>
   12a22:	8082                	ret
   12a24:	00650793          	addi	a5,a0,6
   12a28:	0569                	addi	a0,a0,26
   12a2a:	0007d703          	lhu	a4,0(a5)
   12a2e:	0789                	addi	a5,a5,2
   12a30:	e31d                	bnez	a4,12a56 <emovo.constprop.0+0x6a>
   12a32:	fea79ce3          	bne	a5,a0,12a2a <emovo.constprop.0+0x3e>
   12a36:	01258713          	addi	a4,a1,18
   12a3a:	87ae                	mv	a5,a1
   12a3c:	0789                	addi	a5,a5,2
   12a3e:	fe079f23          	sh	zero,-2(a5)
   12a42:	fef71de3          	bne	a4,a5,12a3c <emovo.constprop.0+0x50>
   12a46:	0125d783          	lhu	a5,18(a1)
   12a4a:	6721                	lui	a4,0x8
   12a4c:	177d                	addi	a4,a4,-1
   12a4e:	8fd9                	or	a5,a5,a4
   12a50:	00f59923          	sh	a5,18(a1)
   12a54:	8082                	ret
   12a56:	01058713          	addi	a4,a1,16
   12a5a:	87ae                	mv	a5,a1
   12a5c:	0789                	addi	a5,a5,2
   12a5e:	fe079f23          	sh	zero,-2(a5)
   12a62:	fef71de3          	bne	a4,a5,12a5c <emovo.constprop.0+0x70>
   12a66:	77f1                	lui	a5,0xffffc
   12a68:	00f59823          	sh	a5,16(a1)
   12a6c:	77e1                	lui	a5,0xffff8
   12a6e:	fff7c793          	not	a5,a5
   12a72:	00f59923          	sh	a5,18(a1)
   12a76:	8082                	ret

0000000000012a78 <enormlz>:
   12a78:	00455783          	lhu	a5,4(a0)
   12a7c:	1101                	addi	sp,sp,-32
   12a7e:	e426                	sd	s1,8(sp)
   12a80:	ec06                	sd	ra,24(sp)
   12a82:	e822                	sd	s0,16(sp)
   12a84:	e04a                	sd	s2,0(sp)
   12a86:	84aa                	mv	s1,a0
   12a88:	efc9                	bnez	a5,12b22 <enormlz+0xaa>
   12a8a:	00655703          	lhu	a4,6(a0)
   12a8e:	4401                	li	s0,0
   12a90:	00f75793          	srli	a5,a4,0xf
   12a94:	e3c1                	bnez	a5,12b14 <enormlz+0x9c>
   12a96:	01a50693          	addi	a3,a0,26
   12a9a:	0a000613          	li	a2,160
   12a9e:	e31d                	bnez	a4,12ac4 <enormlz+0x4c>
   12aa0:	00648793          	addi	a5,s1,6
   12aa4:	a019                	j	12aaa <enormlz+0x32>
   12aa6:	0007d703          	lhu	a4,0(a5) # ffffffffffff8000 <__BSS_END__+0xfffffffffffd8c80>
   12aaa:	0789                	addi	a5,a5,2
   12aac:	fee79e23          	sh	a4,-4(a5)
   12ab0:	fed79be3          	bne	a5,a3,12aa6 <enormlz+0x2e>
   12ab4:	00049c23          	sh	zero,24(s1)
   12ab8:	2441                	addiw	s0,s0,16
   12aba:	04c40d63          	beq	s0,a2,12b14 <enormlz+0x9c>
   12abe:	0064d703          	lhu	a4,6(s1)
   12ac2:	df79                	beqz	a4,12aa0 <enormlz+0x28>
   12ac4:	f0077793          	andi	a5,a4,-256
   12ac8:	eb8d                	bnez	a5,12afa <enormlz+0x82>
   12aca:	01848513          	addi	a0,s1,24
   12ace:	00248593          	addi	a1,s1,2
   12ad2:	4781                	li	a5,0
   12ad4:	872a                	mv	a4,a0
   12ad6:	00075683          	lhu	a3,0(a4) # 8000 <register_fini-0x80b0>
   12ada:	1779                	addi	a4,a4,-2
   12adc:	0086961b          	slliw	a2,a3,0x8
   12ae0:	8fd1                	or	a5,a5,a2
   12ae2:	00f71123          	sh	a5,2(a4)
   12ae6:	0086d793          	srli	a5,a3,0x8
   12aea:	feb716e3          	bne	a4,a1,12ad6 <enormlz+0x5e>
   12aee:	0064d703          	lhu	a4,6(s1)
   12af2:	2421                	addiw	s0,s0,8
   12af4:	f0077793          	andi	a5,a4,-256
   12af8:	dfe9                	beqz	a5,12ad2 <enormlz+0x5a>
   12afa:	0a000913          	li	s2,160
   12afe:	a801                	j	12b0e <enormlz+0x96>
   12b00:	2405                	addiw	s0,s0,1
   12b02:	e33ff0ef          	jal	ra,12934 <eshup1>
   12b06:	00894763          	blt	s2,s0,12b14 <enormlz+0x9c>
   12b0a:	0064d703          	lhu	a4,6(s1)
   12b0e:	833d                	srli	a4,a4,0xf
   12b10:	8526                	mv	a0,s1
   12b12:	d77d                	beqz	a4,12b00 <enormlz+0x88>
   12b14:	60e2                	ld	ra,24(sp)
   12b16:	8522                	mv	a0,s0
   12b18:	6442                	ld	s0,16(sp)
   12b1a:	64a2                	ld	s1,8(sp)
   12b1c:	6902                	ld	s2,0(sp)
   12b1e:	6105                	addi	sp,sp,32
   12b20:	8082                	ret
   12b22:	f007f713          	andi	a4,a5,-256
   12b26:	4401                	li	s0,0
   12b28:	e705                	bnez	a4,12b50 <enormlz+0xd8>
   12b2a:	f6f00913          	li	s2,-145
   12b2e:	a801                	j	12b3e <enormlz+0xc6>
   12b30:	347d                	addiw	s0,s0,-1
   12b32:	db7ff0ef          	jal	ra,128e8 <eshdn1>
   12b36:	fd240fe3          	beq	s0,s2,12b14 <enormlz+0x9c>
   12b3a:	0044d783          	lhu	a5,4(s1)
   12b3e:	8526                	mv	a0,s1
   12b40:	fbe5                	bnez	a5,12b30 <enormlz+0xb8>
   12b42:	60e2                	ld	ra,24(sp)
   12b44:	8522                	mv	a0,s0
   12b46:	6442                	ld	s0,16(sp)
   12b48:	64a2                	ld	s1,8(sp)
   12b4a:	6902                	ld	s2,0(sp)
   12b4c:	6105                	addi	sp,sp,32
   12b4e:	8082                	ret
   12b50:	00450693          	addi	a3,a0,4
   12b54:	01a50593          	addi	a1,a0,26
   12b58:	4701                	li	a4,0
   12b5a:	a019                	j	12b60 <enormlz+0xe8>
   12b5c:	0006d783          	lhu	a5,0(a3)
   12b60:	0087d61b          	srliw	a2,a5,0x8
   12b64:	8f51                	or	a4,a4,a2
   12b66:	0087979b          	slliw	a5,a5,0x8
   12b6a:	00e69023          	sh	a4,0(a3)
   12b6e:	03079713          	slli	a4,a5,0x30
   12b72:	0689                	addi	a3,a3,2
   12b74:	9341                	srli	a4,a4,0x30
   12b76:	fed593e3          	bne	a1,a3,12b5c <enormlz+0xe4>
   12b7a:	0044d783          	lhu	a5,4(s1)
   12b7e:	5461                	li	s0,-8
   12b80:	b76d                	j	12b2a <enormlz+0xb2>

0000000000012b82 <eshift.part.0>:
   12b82:	7179                	addi	sp,sp,-48
   12b84:	f022                	sd	s0,32(sp)
   12b86:	ec26                	sd	s1,24(sp)
   12b88:	f406                	sd	ra,40(sp)
   12b8a:	e84a                	sd	s2,16(sp)
   12b8c:	e44e                	sd	s3,8(sp)
   12b8e:	84ae                	mv	s1,a1
   12b90:	842a                	mv	s0,a0
   12b92:	0605cb63          	bltz	a1,12c08 <eshift.part.0+0x86>
   12b96:	47bd                	li	a5,15
   12b98:	862e                	mv	a2,a1
   12b9a:	0511                	addi	a0,a0,4
   12b9c:	01840693          	addi	a3,s0,24
   12ba0:	45bd                	li	a1,15
   12ba2:	0297d063          	bge	a5,s1,12bc2 <eshift.part.0+0x40>
   12ba6:	87aa                	mv	a5,a0
   12ba8:	0027d703          	lhu	a4,2(a5)
   12bac:	0789                	addi	a5,a5,2
   12bae:	fee79f23          	sh	a4,-2(a5)
   12bb2:	fef69be3          	bne	a3,a5,12ba8 <eshift.part.0+0x26>
   12bb6:	00041c23          	sh	zero,24(s0)
   12bba:	3641                	addiw	a2,a2,-16
   12bbc:	fec5c5e3          	blt	a1,a2,12ba6 <eshift.part.0+0x24>
   12bc0:	88bd                	andi	s1,s1,15
   12bc2:	479d                	li	a5,7
   12bc4:	0297d463          	bge	a5,s1,12bec <eshift.part.0+0x6a>
   12bc8:	01840713          	addi	a4,s0,24
   12bcc:	00240593          	addi	a1,s0,2
   12bd0:	4781                	li	a5,0
   12bd2:	00075683          	lhu	a3,0(a4)
   12bd6:	1779                	addi	a4,a4,-2
   12bd8:	0086961b          	slliw	a2,a3,0x8
   12bdc:	8fd1                	or	a5,a5,a2
   12bde:	00f71123          	sh	a5,2(a4)
   12be2:	0086d793          	srli	a5,a3,0x8
   12be6:	fee596e3          	bne	a1,a4,12bd2 <eshift.part.0+0x50>
   12bea:	34e1                	addiw	s1,s1,-8
   12bec:	c491                	beqz	s1,12bf8 <eshift.part.0+0x76>
   12bee:	34fd                	addiw	s1,s1,-1
   12bf0:	8522                	mv	a0,s0
   12bf2:	d43ff0ef          	jal	ra,12934 <eshup1>
   12bf6:	fce5                	bnez	s1,12bee <eshift.part.0+0x6c>
   12bf8:	70a2                	ld	ra,40(sp)
   12bfa:	7402                	ld	s0,32(sp)
   12bfc:	64e2                	ld	s1,24(sp)
   12bfe:	6942                	ld	s2,16(sp)
   12c00:	69a2                	ld	s3,8(sp)
   12c02:	4501                	li	a0,0
   12c04:	6145                	addi	sp,sp,48
   12c06:	8082                	ret
   12c08:	57c5                	li	a5,-15
   12c0a:	40b0093b          	negw	s2,a1
   12c0e:	06f5db63          	bge	a1,a5,12c84 <eshift.part.0+0x102>
   12c12:	01850593          	addi	a1,a0,24
   12c16:	4981                	li	s3,0
   12c18:	00450693          	addi	a3,a0,4
   12c1c:	463d                	li	a2,15
   12c1e:	01845703          	lhu	a4,24(s0)
   12c22:	87ae                	mv	a5,a1
   12c24:	00e9e9b3          	or	s3,s3,a4
   12c28:	ffe7d703          	lhu	a4,-2(a5)
   12c2c:	17f9                	addi	a5,a5,-2
   12c2e:	00e79123          	sh	a4,2(a5)
   12c32:	fed79be3          	bne	a5,a3,12c28 <eshift.part.0+0xa6>
   12c36:	00041223          	sh	zero,4(s0)
   12c3a:	3941                	addiw	s2,s2,-16
   12c3c:	ff2641e3          	blt	a2,s2,12c1e <eshift.part.0+0x9c>
   12c40:	5941                	li	s2,-16
   12c42:	5745                	li	a4,-15
   12c44:	4099093b          	subw	s2,s2,s1
   12c48:	4781                	li	a5,0
   12c4a:	06e4cb63          	blt	s1,a4,12cc0 <eshift.part.0+0x13e>
   12c4e:	00f9093b          	addw	s2,s2,a5
   12c52:	479d                	li	a5,7
   12c54:	0327ce63          	blt	a5,s2,12c90 <eshift.part.0+0x10e>
   12c58:	00090d63          	beqz	s2,12c72 <eshift.part.0+0xf0>
   12c5c:	01845783          	lhu	a5,24(s0)
   12c60:	397d                	addiw	s2,s2,-1
   12c62:	8522                	mv	a0,s0
   12c64:	8b85                	andi	a5,a5,1
   12c66:	00f9e9b3          	or	s3,s3,a5
   12c6a:	c7fff0ef          	jal	ra,128e8 <eshdn1>
   12c6e:	fe0917e3          	bnez	s2,12c5c <eshift.part.0+0xda>
   12c72:	70a2                	ld	ra,40(sp)
   12c74:	7402                	ld	s0,32(sp)
   12c76:	64e2                	ld	s1,24(sp)
   12c78:	6942                	ld	s2,16(sp)
   12c7a:	01303533          	snez	a0,s3
   12c7e:	69a2                	ld	s3,8(sp)
   12c80:	6145                	addi	sp,sp,48
   12c82:	8082                	ret
   12c84:	57e5                	li	a5,-7
   12c86:	4981                	li	s3,0
   12c88:	00450693          	addi	a3,a0,4
   12c8c:	fcf5d8e3          	bge	a1,a5,12c5c <eshift.part.0+0xda>
   12c90:	01844783          	lbu	a5,24(s0)
   12c94:	01a40593          	addi	a1,s0,26
   12c98:	00f9e9b3          	or	s3,s3,a5
   12c9c:	4781                	li	a5,0
   12c9e:	0006d703          	lhu	a4,0(a3)
   12ca2:	0689                	addi	a3,a3,2
   12ca4:	0087561b          	srliw	a2,a4,0x8
   12ca8:	8fd1                	or	a5,a5,a2
   12caa:	0087171b          	slliw	a4,a4,0x8
   12cae:	fef69f23          	sh	a5,-2(a3)
   12cb2:	03071793          	slli	a5,a4,0x30
   12cb6:	93c1                	srli	a5,a5,0x30
   12cb8:	feb693e3          	bne	a3,a1,12c9e <eshift.part.0+0x11c>
   12cbc:	3961                	addiw	s2,s2,-8
   12cbe:	bf69                	j	12c58 <eshift.part.0+0xd6>
   12cc0:	ff097793          	andi	a5,s2,-16
   12cc4:	40f007bb          	negw	a5,a5
   12cc8:	00f9093b          	addw	s2,s2,a5
   12ccc:	479d                	li	a5,7
   12cce:	f927d5e3          	bge	a5,s2,12c58 <eshift.part.0+0xd6>
   12cd2:	bf7d                	j	12c90 <eshift.part.0+0x10e>

0000000000012cd4 <emovi>:
   12cd4:	01255783          	lhu	a5,18(a0)
   12cd8:	6621                	lui	a2,0x8
   12cda:	167d                	addi	a2,a2,-1
   12cdc:	00f7d79b          	srliw	a5,a5,0xf
   12ce0:	40f007bb          	negw	a5,a5
   12ce4:	00f59023          	sh	a5,0(a1)
   12ce8:	01255683          	lhu	a3,18(a0)
   12cec:	01050793          	addi	a5,a0,16
   12cf0:	00458713          	addi	a4,a1,4
   12cf4:	8ef1                	and	a3,a3,a2
   12cf6:	00d59123          	sh	a3,2(a1)
   12cfa:	0006881b          	sext.w	a6,a3
   12cfe:	02c68263          	beq	a3,a2,12d22 <emovi+0x4e>
   12d02:	00658713          	addi	a4,a1,6
   12d06:	00059223          	sh	zero,4(a1)
   12d0a:	1579                	addi	a0,a0,-2
   12d0c:	0007d683          	lhu	a3,0(a5)
   12d10:	17f9                	addi	a5,a5,-2
   12d12:	0709                	addi	a4,a4,2
   12d14:	fed71f23          	sh	a3,-2(a4)
   12d18:	fef51ae3          	bne	a0,a5,12d0c <emovi+0x38>
   12d1c:	00059c23          	sh	zero,24(a1)
   12d20:	8082                	ret
   12d22:	01255683          	lhu	a3,18(a0)
   12d26:	0106f6b3          	and	a3,a3,a6
   12d2a:	01069b63          	bne	a3,a6,12d40 <emovi+0x6c>
   12d2e:	01250813          	addi	a6,a0,18
   12d32:	86aa                	mv	a3,a0
   12d34:	0006d603          	lhu	a2,0(a3)
   12d38:	0689                	addi	a3,a3,2
   12d3a:	ea11                	bnez	a2,12d4e <emovi+0x7a>
   12d3c:	ff069ce3          	bne	a3,a6,12d34 <emovi+0x60>
   12d40:	05e9                	addi	a1,a1,26
   12d42:	0709                	addi	a4,a4,2
   12d44:	fe071f23          	sh	zero,-2(a4)
   12d48:	fee59de3          	bne	a1,a4,12d42 <emovi+0x6e>
   12d4c:	8082                	ret
   12d4e:	00658713          	addi	a4,a1,6
   12d52:	00059223          	sh	zero,4(a1)
   12d56:	1571                	addi	a0,a0,-4
   12d58:	0007d683          	lhu	a3,0(a5)
   12d5c:	17f9                	addi	a5,a5,-2
   12d5e:	0709                	addi	a4,a4,2
   12d60:	fed71f23          	sh	a3,-2(a4)
   12d64:	fea79ae3          	bne	a5,a0,12d58 <emovi+0x84>
   12d68:	8082                	ret

0000000000012d6a <ecmp>:
   12d6a:	01255783          	lhu	a5,18(a0)
   12d6e:	715d                	addi	sp,sp,-80
   12d70:	e0a2                	sd	s0,64(sp)
   12d72:	fff7c793          	not	a5,a5
   12d76:	e486                	sd	ra,72(sp)
   12d78:	03179713          	slli	a4,a5,0x31
   12d7c:	842e                	mv	s0,a1
   12d7e:	eb11                	bnez	a4,12d92 <ecmp+0x28>
   12d80:	01250693          	addi	a3,a0,18
   12d84:	87aa                	mv	a5,a0
   12d86:	0007d703          	lhu	a4,0(a5)
   12d8a:	0789                	addi	a5,a5,2
   12d8c:	eb25                	bnez	a4,12dfc <ecmp+0x92>
   12d8e:	fed79ce3          	bne	a5,a3,12d86 <ecmp+0x1c>
   12d92:	01245783          	lhu	a5,18(s0)
   12d96:	fff7c793          	not	a5,a5
   12d9a:	03179713          	slli	a4,a5,0x31
   12d9e:	c331                	beqz	a4,12de2 <ecmp+0x78>
   12da0:	858a                	mv	a1,sp
   12da2:	f33ff0ef          	jal	ra,12cd4 <emovi>
   12da6:	100c                	addi	a1,sp,32
   12da8:	8522                	mv	a0,s0
   12daa:	f2bff0ef          	jal	ra,12cd4 <emovi>
   12dae:	00015583          	lhu	a1,0(sp)
   12db2:	02015783          	lhu	a5,32(sp)
   12db6:	04b78863          	beq	a5,a1,12e06 <ecmp+0x9c>
   12dba:	00210793          	addi	a5,sp,2
   12dbe:	02210713          	addi	a4,sp,34
   12dc2:	0830                	addi	a2,sp,24
   12dc4:	0007d683          	lhu	a3,0(a5)
   12dc8:	0789                	addi	a5,a5,2
   12dca:	eea5                	bnez	a3,12e42 <ecmp+0xd8>
   12dcc:	00075683          	lhu	a3,0(a4)
   12dd0:	0709                	addi	a4,a4,2
   12dd2:	eaa5                	bnez	a3,12e42 <ecmp+0xd8>
   12dd4:	fef618e3          	bne	a2,a5,12dc4 <ecmp+0x5a>
   12dd8:	4501                	li	a0,0
   12dda:	60a6                	ld	ra,72(sp)
   12ddc:	6406                	ld	s0,64(sp)
   12dde:	6161                	addi	sp,sp,80
   12de0:	8082                	ret
   12de2:	87a2                	mv	a5,s0
   12de4:	0007d703          	lhu	a4,0(a5)
   12de8:	01240693          	addi	a3,s0,18
   12dec:	0789                	addi	a5,a5,2
   12dee:	e719                	bnez	a4,12dfc <ecmp+0x92>
   12df0:	fad788e3          	beq	a5,a3,12da0 <ecmp+0x36>
   12df4:	0007d703          	lhu	a4,0(a5)
   12df8:	0789                	addi	a5,a5,2
   12dfa:	db7d                	beqz	a4,12df0 <ecmp+0x86>
   12dfc:	60a6                	ld	ra,72(sp)
   12dfe:	6406                	ld	s0,64(sp)
   12e00:	5579                	li	a0,-2
   12e02:	6161                	addi	sp,sp,80
   12e04:	8082                	ret
   12e06:	4505                	li	a0,1
   12e08:	e1a9                	bnez	a1,12e4a <ecmp+0xe0>
   12e0a:	00215603          	lhu	a2,2(sp)
   12e0e:	02215683          	lhu	a3,34(sp)
   12e12:	00210713          	addi	a4,sp,2
   12e16:	02210793          	addi	a5,sp,34
   12e1a:	182c                	addi	a1,sp,56
   12e1c:	0789                	addi	a5,a5,2
   12e1e:	0709                	addi	a4,a4,2
   12e20:	00d61c63          	bne	a2,a3,12e38 <ecmp+0xce>
   12e24:	fab78ae3          	beq	a5,a1,12dd8 <ecmp+0x6e>
   12e28:	00075603          	lhu	a2,0(a4)
   12e2c:	0007d683          	lhu	a3,0(a5)
   12e30:	0709                	addi	a4,a4,2
   12e32:	0789                	addi	a5,a5,2
   12e34:	fed608e3          	beq	a2,a3,12e24 <ecmp+0xba>
   12e38:	fac6e1e3          	bltu	a3,a2,12dda <ecmp+0x70>
   12e3c:	40a0053b          	negw	a0,a0
   12e40:	bf69                	j	12dda <ecmp+0x70>
   12e42:	4505                	li	a0,1
   12e44:	d9d9                	beqz	a1,12dda <ecmp+0x70>
   12e46:	557d                	li	a0,-1
   12e48:	bf49                	j	12dda <ecmp+0x70>
   12e4a:	557d                	li	a0,-1
   12e4c:	bf7d                	j	12e0a <ecmp+0xa0>

0000000000012e4e <emdnorm>:
   12e4e:	715d                	addi	sp,sp,-80
   12e50:	e0a2                	sd	s0,64(sp)
   12e52:	fc26                	sd	s1,56(sp)
   12e54:	f84a                	sd	s2,48(sp)
   12e56:	f44e                	sd	s3,40(sp)
   12e58:	f052                	sd	s4,32(sp)
   12e5a:	ec56                	sd	s5,24(sp)
   12e5c:	8936                	mv	s2,a3
   12e5e:	84be                	mv	s1,a5
   12e60:	e486                	sd	ra,72(sp)
   12e62:	e85a                	sd	s6,16(sp)
   12e64:	e45e                	sd	s7,8(sp)
   12e66:	842a                	mv	s0,a0
   12e68:	89ae                	mv	s3,a1
   12e6a:	8a32                	mv	s4,a2
   12e6c:	8aba                	mv	s5,a4
   12e6e:	c0bff0ef          	jal	ra,12a78 <enormlz>
   12e72:	09000793          	li	a5,144
   12e76:	40a90933          	sub	s2,s2,a0
   12e7a:	10a7dc63          	bge	a5,a0,12f92 <emdnorm+0x144>
   12e7e:	67a1                	lui	a5,0x8
   12e80:	17f9                	addi	a5,a5,-2
   12e82:	1f27dd63          	bge	a5,s2,1307c <emdnorm+0x22e>
   12e86:	1c0a8b63          	beqz	s5,1305c <emdnorm+0x20e>
   12e8a:	0044aa83          	lw	s5,4(s1)
   12e8e:	4094                	lw	a3,0(s1)
   12e90:	01a48713          	addi	a4,s1,26
   12e94:	03448793          	addi	a5,s1,52
   12e98:	23568463          	beq	a3,s5,130c0 <emdnorm+0x272>
   12e9c:	0709                	addi	a4,a4,2
   12e9e:	fe071f23          	sh	zero,-2(a4)
   12ea2:	fef71de3          	bne	a4,a5,12e9c <emdnorm+0x4e>
   12ea6:	03800793          	li	a5,56
   12eaa:	28fa8363          	beq	s5,a5,13130 <emdnorm+0x2e2>
   12eae:	1157d163          	bge	a5,s5,12fb0 <emdnorm+0x162>
   12eb2:	04000793          	li	a5,64
   12eb6:	22fa8b63          	beq	s5,a5,130ec <emdnorm+0x29e>
   12eba:	07100793          	li	a5,113
   12ebe:	28fa9363          	bne	s5,a5,13144 <emdnorm+0x2f6>
   12ec2:	6721                	lui	a4,0x8
   12ec4:	177d                	addi	a4,a4,-1
   12ec6:	6591                	lui	a1,0x4
   12ec8:	4b51                	li	s6,20
   12eca:	4ba9                	li	s7,10
   12ecc:	67a1                	lui	a5,0x8
   12ece:	4629                	li	a2,10
   12ed0:	00860693          	addi	a3,a2,8 # 8008 <register_fini-0x80a8>
   12ed4:	0686                	slli	a3,a3,0x1
   12ed6:	00e49a23          	sh	a4,20(s1)
   12eda:	0174a423          	sw	s7,8(s1)
   12ede:	00b49b23          	sh	a1,22(s1)
   12ee2:	00f49c23          	sh	a5,24(s1)
   12ee6:	c4d0                	sw	a2,12(s1)
   12ee8:	00d48733          	add	a4,s1,a3
   12eec:	00f71523          	sh	a5,10(a4) # 800a <register_fini-0x80a6>
   12ef0:	0154a023          	sw	s5,0(s1)
   12ef4:	9b22                	add	s6,s6,s0
   12ef6:	1d205c63          	blez	s2,130ce <emdnorm+0x280>
   12efa:	000b5703          	lhu	a4,0(s6)
   12efe:	0144d683          	lhu	a3,20(s1)
   12f02:	08f00793          	li	a5,143
   12f06:	00d77633          	and	a2,a4,a3
   12f0a:	0557c163          	blt	a5,s5,12f4c <emdnorm+0xfe>
   12f0e:	001b879b          	addiw	a5,s7,1
   12f12:	45b1                	li	a1,12
   12f14:	02f5cc63          	blt	a1,a5,12f4c <emdnorm+0xfe>
   12f18:	472d                	li	a4,11
   12f1a:	4177073b          	subw	a4,a4,s7
   12f1e:	1702                	slli	a4,a4,0x20
   12f20:	9301                	srli	a4,a4,0x20
   12f22:	975e                	add	a4,a4,s7
   12f24:	0786                	slli	a5,a5,0x1
   12f26:	0706                	slli	a4,a4,0x1
   12f28:	00440693          	addi	a3,s0,4
   12f2c:	97a2                	add	a5,a5,s0
   12f2e:	9736                	add	a4,a4,a3
   12f30:	0007d683          	lhu	a3,0(a5) # 8000 <register_fini-0x80b0>
   12f34:	c299                	beqz	a3,12f3a <emdnorm+0xec>
   12f36:	00166613          	ori	a2,a2,1
   12f3a:	00079023          	sh	zero,0(a5)
   12f3e:	0789                	addi	a5,a5,2
   12f40:	fee798e3          	bne	a5,a4,12f30 <emdnorm+0xe2>
   12f44:	000b5703          	lhu	a4,0(s6)
   12f48:	0144d683          	lhu	a3,20(s1)
   12f4c:	fff6c693          	not	a3,a3
   12f50:	8f75                	and	a4,a4,a3
   12f52:	00eb1023          	sh	a4,0(s6)
   12f56:	0164d783          	lhu	a5,22(s1)
   12f5a:	00c7f733          	and	a4,a5,a2
   12f5e:	eb51                	bnez	a4,12ff2 <emdnorm+0x1a4>
   12f60:	0d205d63          	blez	s2,1303a <emdnorm+0x1ec>
   12f64:	00445783          	lhu	a5,4(s0)
   12f68:	1a079463          	bnez	a5,13110 <emdnorm+0x2c2>
   12f6c:	67a1                	lui	a5,0x8
   12f6e:	00041c23          	sh	zero,24(s0)
   12f72:	17f9                	addi	a5,a5,-2
   12f74:	0f27c663          	blt	a5,s2,13060 <emdnorm+0x212>
   12f78:	01241123          	sh	s2,2(s0)
   12f7c:	60a6                	ld	ra,72(sp)
   12f7e:	6406                	ld	s0,64(sp)
   12f80:	74e2                	ld	s1,56(sp)
   12f82:	7942                	ld	s2,48(sp)
   12f84:	79a2                	ld	s3,40(sp)
   12f86:	7a02                	ld	s4,32(sp)
   12f88:	6ae2                	ld	s5,24(sp)
   12f8a:	6b42                	ld	s6,16(sp)
   12f8c:	6ba2                	ld	s7,8(sp)
   12f8e:	6161                	addi	sp,sp,80
   12f90:	8082                	ret
   12f92:	10095c63          	bgez	s2,130aa <emdnorm+0x25c>
   12f96:	f7000793          	li	a5,-144
   12f9a:	0ef95a63          	bge	s2,a5,1308e <emdnorm+0x240>
   12f9e:	00240793          	addi	a5,s0,2
   12fa2:	0469                	addi	s0,s0,26
   12fa4:	0789                	addi	a5,a5,2
   12fa6:	fe079f23          	sh	zero,-2(a5) # 7ffe <register_fini-0x80b2>
   12faa:	fe879de3          	bne	a5,s0,12fa4 <emdnorm+0x156>
   12fae:	b7f9                	j	12f7c <emdnorm+0x12e>
   12fb0:	47e1                	li	a5,24
   12fb2:	14fa8563          	beq	s5,a5,130fc <emdnorm+0x2ae>
   12fb6:	03500793          	li	a5,53
   12fba:	18fa9563          	bne	s5,a5,13144 <emdnorm+0x2f6>
   12fbe:	6785                	lui	a5,0x1
   12fc0:	7ff00713          	li	a4,2047
   12fc4:	40000593          	li	a1,1024
   12fc8:	4b31                	li	s6,12
   12fca:	4b99                	li	s7,6
   12fcc:	80078793          	addi	a5,a5,-2048 # 800 <register_fini-0xf8b0>
   12fd0:	4619                	li	a2,6
   12fd2:	bdfd                	j	12ed0 <emdnorm+0x82>
   12fd4:	0144d703          	lhu	a4,20(s1)
   12fd8:	000b5603          	lhu	a2,0(s6)
   12fdc:	fff74793          	not	a5,a4
   12fe0:	8ff1                	and	a5,a5,a2
   12fe2:	00fb1023          	sh	a5,0(s6)
   12fe6:	0164d783          	lhu	a5,22(s1)
   12fea:	8e79                	and	a2,a2,a4
   12fec:	00c7f733          	and	a4,a5,a2
   12ff0:	cf21                	beqz	a4,13048 <emdnorm+0x1fa>
   12ff2:	00c79d63          	bne	a5,a2,1300c <emdnorm+0x1be>
   12ff6:	12099a63          	bnez	s3,1312a <emdnorm+0x2dc>
   12ffa:	44dc                	lw	a5,12(s1)
   12ffc:	0184d703          	lhu	a4,24(s1)
   13000:	0786                	slli	a5,a5,0x1
   13002:	97a2                	add	a5,a5,s0
   13004:	0007d783          	lhu	a5,0(a5)
   13008:	8ff9                	and	a5,a5,a4
   1300a:	dbb9                	beqz	a5,12f60 <emdnorm+0x112>
   1300c:	03248613          	addi	a2,s1,50
   13010:	01840693          	addi	a3,s0,24
   13014:	04f1                	addi	s1,s1,28
   13016:	4781                	li	a5,0
   13018:	00065703          	lhu	a4,0(a2)
   1301c:	0006d583          	lhu	a1,0(a3)
   13020:	16f9                	addi	a3,a3,-2
   13022:	1679                	addi	a2,a2,-2
   13024:	972e                	add	a4,a4,a1
   13026:	973e                	add	a4,a4,a5
   13028:	01075793          	srli	a5,a4,0x10
   1302c:	00e69123          	sh	a4,2(a3)
   13030:	8b85                	andi	a5,a5,1
   13032:	fec493e3          	bne	s1,a2,13018 <emdnorm+0x1ca>
   13036:	f32047e3          	bgtz	s2,12f64 <emdnorm+0x116>
   1303a:	09000793          	li	a5,144
   1303e:	00fa8563          	beq	s5,a5,13048 <emdnorm+0x1fa>
   13042:	8522                	mv	a0,s0
   13044:	8f1ff0ef          	jal	ra,12934 <eshup1>
   13048:	00445783          	lhu	a5,4(s0)
   1304c:	e3f1                	bnez	a5,13110 <emdnorm+0x2c2>
   1304e:	00041c23          	sh	zero,24(s0)
   13052:	f20953e3          	bgez	s2,12f78 <emdnorm+0x12a>
   13056:	00041123          	sh	zero,2(s0)
   1305a:	b70d                	j	12f7c <emdnorm+0x12e>
   1305c:	00041c23          	sh	zero,24(s0)
   13060:	77e1                	lui	a5,0xffff8
   13062:	fff7c793          	not	a5,a5
   13066:	00f41123          	sh	a5,2(s0)
   1306a:	00440793          	addi	a5,s0,4
   1306e:	0461                	addi	s0,s0,24
   13070:	00079023          	sh	zero,0(a5) # ffffffffffff8000 <__BSS_END__+0xfffffffffffd8c80>
   13074:	0789                	addi	a5,a5,2
   13076:	fe879de3          	bne	a5,s0,13070 <emdnorm+0x222>
   1307a:	b709                	j	12f7c <emdnorm+0x12e>
   1307c:	00240793          	addi	a5,s0,2
   13080:	0469                	addi	s0,s0,26
   13082:	0789                	addi	a5,a5,2
   13084:	fe079f23          	sh	zero,-2(a5)
   13088:	fef41de3          	bne	s0,a5,13082 <emdnorm+0x234>
   1308c:	bdc5                	j	12f7c <emdnorm+0x12e>
   1308e:	0009059b          	sext.w	a1,s2
   13092:	8522                	mv	a0,s0
   13094:	aefff0ef          	jal	ra,12b82 <eshift.part.0>
   13098:	c111                	beqz	a0,1309c <emdnorm+0x24e>
   1309a:	4985                	li	s3,1
   1309c:	de0a97e3          	bnez	s5,12e8a <emdnorm+0x3c>
   130a0:	00041c23          	sh	zero,24(s0)
   130a4:	00041123          	sh	zero,2(s0)
   130a8:	bdd1                	j	12f7c <emdnorm+0x12e>
   130aa:	ec0a81e3          	beqz	s5,12f6c <emdnorm+0x11e>
   130ae:	0044aa83          	lw	s5,4(s1)
   130b2:	4094                	lw	a3,0(s1)
   130b4:	01a48713          	addi	a4,s1,26
   130b8:	03448793          	addi	a5,s1,52
   130bc:	df5690e3          	bne	a3,s5,12e9c <emdnorm+0x4e>
   130c0:	0084ab83          	lw	s7,8(s1)
   130c4:	001b9b13          	slli	s6,s7,0x1
   130c8:	9b22                	add	s6,s6,s0
   130ca:	e32048e3          	bgtz	s2,12efa <emdnorm+0xac>
   130ce:	09000793          	li	a5,144
   130d2:	f0fa81e3          	beq	s5,a5,12fd4 <emdnorm+0x186>
   130d6:	01845783          	lhu	a5,24(s0)
   130da:	8522                	mv	a0,s0
   130dc:	8b85                	andi	a5,a5,1
   130de:	00f9e7b3          	or	a5,s3,a5
   130e2:	0007899b          	sext.w	s3,a5
   130e6:	803ff0ef          	jal	ra,128e8 <eshdn1>
   130ea:	bd01                	j	12efa <emdnorm+0xac>
   130ec:	6741                	lui	a4,0x10
   130ee:	177d                	addi	a4,a4,-1
   130f0:	65a1                	lui	a1,0x8
   130f2:	4b39                	li	s6,14
   130f4:	4b9d                	li	s7,7
   130f6:	4785                	li	a5,1
   130f8:	4619                	li	a2,6
   130fa:	bbd9                	j	12ed0 <emdnorm+0x82>
   130fc:	0ff00713          	li	a4,255
   13100:	08000593          	li	a1,128
   13104:	4b21                	li	s6,8
   13106:	4b91                	li	s7,4
   13108:	10000793          	li	a5,256
   1310c:	4611                	li	a2,4
   1310e:	b3c9                	j	12ed0 <emdnorm+0x82>
   13110:	8522                	mv	a0,s0
   13112:	fd6ff0ef          	jal	ra,128e8 <eshdn1>
   13116:	67a1                	lui	a5,0x8
   13118:	0905                	addi	s2,s2,1
   1311a:	00041c23          	sh	zero,24(s0)
   1311e:	17f9                	addi	a5,a5,-2
   13120:	f527c0e3          	blt	a5,s2,13060 <emdnorm+0x212>
   13124:	f20949e3          	bltz	s2,13056 <emdnorm+0x208>
   13128:	bd81                	j	12f78 <emdnorm+0x12a>
   1312a:	ee0a01e3          	beqz	s4,1300c <emdnorm+0x1be>
   1312e:	bd0d                	j	12f60 <emdnorm+0x112>
   13130:	0ff00713          	li	a4,255
   13134:	08000593          	li	a1,128
   13138:	4b31                	li	s6,12
   1313a:	4b99                	li	s7,6
   1313c:	10000793          	li	a5,256
   13140:	4619                	li	a2,6
   13142:	b379                	j	12ed0 <emdnorm+0x82>
   13144:	6741                	lui	a4,0x10
   13146:	177d                	addi	a4,a4,-1
   13148:	65a1                	lui	a1,0x8
   1314a:	4b61                	li	s6,24
   1314c:	4bb1                	li	s7,12
   1314e:	4785                	li	a5,1
   13150:	462d                	li	a2,11
   13152:	bbbd                	j	12ed0 <emdnorm+0x82>

0000000000013154 <eiremain>:
   13154:	711d                	addi	sp,sp,-96
   13156:	e0ca                	sd	s2,64(sp)
   13158:	fc4e                	sd	s3,56(sp)
   1315a:	892e                	mv	s2,a1
   1315c:	00255983          	lhu	s3,2(a0)
   13160:	ec86                	sd	ra,88(sp)
   13162:	e8a2                	sd	s0,80(sp)
   13164:	e4a6                	sd	s1,72(sp)
   13166:	f852                	sd	s4,48(sp)
   13168:	84b2                	mv	s1,a2
   1316a:	ec5e                	sd	s7,24(sp)
   1316c:	f456                	sd	s5,40(sp)
   1316e:	f05a                	sd	s6,32(sp)
   13170:	e862                	sd	s8,16(sp)
   13172:	e466                	sd	s9,8(sp)
   13174:	e06a                	sd	s10,0(sp)
   13176:	8baa                	mv	s7,a0
   13178:	901ff0ef          	jal	ra,12a78 <enormlz>
   1317c:	00295403          	lhu	s0,2(s2)
   13180:	87aa                	mv	a5,a0
   13182:	854a                	mv	a0,s2
   13184:	40f989b3          	sub	s3,s3,a5
   13188:	03448a13          	addi	s4,s1,52
   1318c:	8edff0ef          	jal	ra,12a78 <enormlz>
   13190:	8c09                	sub	s0,s0,a0
   13192:	04e48713          	addi	a4,s1,78
   13196:	87d2                	mv	a5,s4
   13198:	0789                	addi	a5,a5,2
   1319a:	fe079f23          	sh	zero,-2(a5) # 7ffe <register_fini-0x80b2>
   1319e:	fee79de3          	bne	a5,a4,13198 <eiremain+0x44>
   131a2:	07344a63          	blt	s0,s3,13216 <eiremain+0xc2>
   131a6:	004b8b13          	addi	s6,s7,4
   131aa:	00490a93          	addi	s5,s2,4
   131ae:	01ab8c13          	addi	s8,s7,26
   131b2:	00290d13          	addi	s10,s2,2
   131b6:	8756                	mv	a4,s5
   131b8:	87da                	mv	a5,s6
   131ba:	0007d603          	lhu	a2,0(a5)
   131be:	00075683          	lhu	a3,0(a4) # 10000 <register_fini-0xb0>
   131c2:	0789                	addi	a5,a5,2
   131c4:	0709                	addi	a4,a4,2
   131c6:	06d61c63          	bne	a2,a3,1323e <eiremain+0xea>
   131ca:	ff8798e3          	bne	a5,s8,131ba <eiremain+0x66>
   131ce:	018b8613          	addi	a2,s7,24
   131d2:	01890713          	addi	a4,s2,24
   131d6:	4681                	li	a3,0
   131d8:	00075783          	lhu	a5,0(a4)
   131dc:	00065583          	lhu	a1,0(a2)
   131e0:	1779                	addi	a4,a4,-2
   131e2:	8f95                	sub	a5,a5,a3
   131e4:	8f8d                	sub	a5,a5,a1
   131e6:	0107d693          	srli	a3,a5,0x10
   131ea:	00f71123          	sh	a5,2(a4)
   131ee:	8a85                	andi	a3,a3,1
   131f0:	1679                	addi	a2,a2,-2
   131f2:	feed13e3          	bne	s10,a4,131d8 <eiremain+0x84>
   131f6:	4c85                	li	s9,1
   131f8:	8552                	mv	a0,s4
   131fa:	f3aff0ef          	jal	ra,12934 <eshup1>
   131fe:	04c4d783          	lhu	a5,76(s1)
   13202:	147d                	addi	s0,s0,-1
   13204:	854a                	mv	a0,s2
   13206:	00fce7b3          	or	a5,s9,a5
   1320a:	04f49623          	sh	a5,76(s1)
   1320e:	f26ff0ef          	jal	ra,12934 <eshup1>
   13212:	fb3452e3          	bge	s0,s3,131b6 <eiremain+0x62>
   13216:	86a2                	mv	a3,s0
   13218:	6446                	ld	s0,80(sp)
   1321a:	60e6                	ld	ra,88(sp)
   1321c:	79e2                	ld	s3,56(sp)
   1321e:	7a42                	ld	s4,48(sp)
   13220:	7aa2                	ld	s5,40(sp)
   13222:	7b02                	ld	s6,32(sp)
   13224:	6be2                	ld	s7,24(sp)
   13226:	6c42                	ld	s8,16(sp)
   13228:	6ca2                	ld	s9,8(sp)
   1322a:	6d02                	ld	s10,0(sp)
   1322c:	87a6                	mv	a5,s1
   1322e:	854a                	mv	a0,s2
   13230:	64a6                	ld	s1,72(sp)
   13232:	6906                	ld	s2,64(sp)
   13234:	4701                	li	a4,0
   13236:	4601                	li	a2,0
   13238:	4581                	li	a1,0
   1323a:	6125                	addi	sp,sp,96
   1323c:	b909                	j	12e4e <emdnorm>
   1323e:	4c81                	li	s9,0
   13240:	fac6ece3          	bltu	a3,a2,131f8 <eiremain+0xa4>
   13244:	b769                	j	131ce <eiremain+0x7a>

0000000000013246 <e113toe.isra.0>:
   13246:	7179                	addi	sp,sp,-48
   13248:	f022                	sd	s0,32(sp)
   1324a:	f406                	sd	ra,40(sp)
   1324c:	842e                	mv	s0,a1
   1324e:	878a                	mv	a5,sp
   13250:	01a10713          	addi	a4,sp,26
   13254:	0789                	addi	a5,a5,2
   13256:	fe079f23          	sh	zero,-2(a5)
   1325a:	fee79de3          	bne	a5,a4,13254 <e113toe.isra.0+0xe>
   1325e:	00e55783          	lhu	a5,14(a0)
   13262:	6721                	lui	a4,0x8
   13264:	177d                	addi	a4,a4,-1
   13266:	03079693          	slli	a3,a5,0x30
   1326a:	96fd                	srai	a3,a3,0x3f
   1326c:	00d11023          	sh	a3,0(sp)
   13270:	00e7f6b3          	and	a3,a5,a4
   13274:	8636                	mv	a2,a3
   13276:	04e68363          	beq	a3,a4,132bc <e113toe.isra.0+0x76>
   1327a:	00e50793          	addi	a5,a0,14
   1327e:	00d11123          	sh	a3,2(sp)
   13282:	00610713          	addi	a4,sp,6
   13286:	ffe7d683          	lhu	a3,-2(a5)
   1328a:	17f9                	addi	a5,a5,-2
   1328c:	0709                	addi	a4,a4,2
   1328e:	fed71f23          	sh	a3,-2(a4) # 7ffe <register_fini-0x80b2>
   13292:	fef51ae3          	bne	a0,a5,13286 <e113toe.isra.0+0x40>
   13296:	ea19                	bnez	a2,132ac <e113toe.isra.0+0x66>
   13298:	00011223          	sh	zero,4(sp)
   1329c:	85a2                	mv	a1,s0
   1329e:	850a                	mv	a0,sp
   132a0:	f4cff0ef          	jal	ra,129ec <emovo.constprop.0>
   132a4:	70a2                	ld	ra,40(sp)
   132a6:	7402                	ld	s0,32(sp)
   132a8:	6145                	addi	sp,sp,48
   132aa:	8082                	ret
   132ac:	4785                	li	a5,1
   132ae:	55fd                	li	a1,-1
   132b0:	850a                	mv	a0,sp
   132b2:	00f11223          	sh	a5,4(sp)
   132b6:	8cdff0ef          	jal	ra,12b82 <eshift.part.0>
   132ba:	b7cd                	j	1329c <e113toe.isra.0+0x56>
   132bc:	87aa                	mv	a5,a0
   132be:	00e50693          	addi	a3,a0,14
   132c2:	0007d703          	lhu	a4,0(a5)
   132c6:	0789                	addi	a5,a5,2
   132c8:	ef21                	bnez	a4,13320 <e113toe.isra.0+0xda>
   132ca:	fef69ce3          	bne	a3,a5,132c2 <e113toe.isra.0+0x7c>
   132ce:	01440713          	addi	a4,s0,20
   132d2:	87a2                	mv	a5,s0
   132d4:	0789                	addi	a5,a5,2
   132d6:	fe079f23          	sh	zero,-2(a5)
   132da:	fee79de3          	bne	a5,a4,132d4 <e113toe.isra.0+0x8e>
   132de:	01240713          	addi	a4,s0,18
   132e2:	87a2                	mv	a5,s0
   132e4:	0789                	addi	a5,a5,2
   132e6:	fe079f23          	sh	zero,-2(a5)
   132ea:	fef71de3          	bne	a4,a5,132e4 <e113toe.isra.0+0x9e>
   132ee:	01245783          	lhu	a5,18(s0)
   132f2:	66a1                	lui	a3,0x8
   132f4:	16fd                	addi	a3,a3,-1
   132f6:	8fd5                	or	a5,a5,a3
   132f8:	17c2                	slli	a5,a5,0x30
   132fa:	93c1                	srli	a5,a5,0x30
   132fc:	00f41923          	sh	a5,18(s0)
   13300:	00e51683          	lh	a3,14(a0)
   13304:	fa06d0e3          	bgez	a3,132a4 <e113toe.isra.0+0x5e>
   13308:	86a2                	mv	a3,s0
   1330a:	0006d603          	lhu	a2,0(a3) # 8000 <register_fini-0x80b0>
   1330e:	0689                	addi	a3,a3,2
   13310:	fa51                	bnez	a2,132a4 <e113toe.isra.0+0x5e>
   13312:	fed71ce3          	bne	a4,a3,1330a <e113toe.isra.0+0xc4>
   13316:	7761                	lui	a4,0xffff8
   13318:	8fb9                	xor	a5,a5,a4
   1331a:	00f41923          	sh	a5,18(s0)
   1331e:	b759                	j	132a4 <e113toe.isra.0+0x5e>
   13320:	01040713          	addi	a4,s0,16
   13324:	87a2                	mv	a5,s0
   13326:	0789                	addi	a5,a5,2
   13328:	fe079f23          	sh	zero,-2(a5)
   1332c:	fee79de3          	bne	a5,a4,13326 <e113toe.isra.0+0xe0>
   13330:	77f1                	lui	a5,0xffffc
   13332:	00f41823          	sh	a5,16(s0)
   13336:	77e1                	lui	a5,0xffff8
   13338:	fff7c793          	not	a5,a5
   1333c:	00f41923          	sh	a5,18(s0)
   13340:	b795                	j	132a4 <e113toe.isra.0+0x5e>

0000000000013342 <ediv>:
   13342:	01255783          	lhu	a5,18(a0)
   13346:	7115                	addi	sp,sp,-224
   13348:	e9a2                	sd	s0,208(sp)
   1334a:	fff7c793          	not	a5,a5
   1334e:	e5a6                	sd	s1,200(sp)
   13350:	e1ca                	sd	s2,192(sp)
   13352:	fd4e                	sd	s3,184(sp)
   13354:	ed86                	sd	ra,216(sp)
   13356:	f952                	sd	s4,176(sp)
   13358:	f556                	sd	s5,168(sp)
   1335a:	f15a                	sd	s6,160(sp)
   1335c:	ed5e                	sd	s7,152(sp)
   1335e:	e962                	sd	s8,144(sp)
   13360:	e566                	sd	s9,136(sp)
   13362:	e16a                	sd	s10,128(sp)
   13364:	fcee                	sd	s11,120(sp)
   13366:	03179713          	slli	a4,a5,0x31
   1336a:	84aa                	mv	s1,a0
   1336c:	89ae                	mv	s3,a1
   1336e:	8432                	mv	s0,a2
   13370:	8936                	mv	s2,a3
   13372:	eb19                	bnez	a4,13388 <ediv+0x46>
   13374:	01250693          	addi	a3,a0,18
   13378:	87aa                	mv	a5,a0
   1337a:	0007d703          	lhu	a4,0(a5) # ffffffffffff8000 <__BSS_END__+0xfffffffffffd8c80>
   1337e:	0789                	addi	a5,a5,2
   13380:	22071a63          	bnez	a4,135b4 <ediv+0x272>
   13384:	fed79be3          	bne	a5,a3,1337a <ediv+0x38>
   13388:	0129d783          	lhu	a5,18(s3)
   1338c:	fff7c793          	not	a5,a5
   13390:	03179713          	slli	a4,a5,0x31
   13394:	eb19                	bnez	a4,133aa <ediv+0x68>
   13396:	01298693          	addi	a3,s3,18
   1339a:	87ce                	mv	a5,s3
   1339c:	0007d703          	lhu	a4,0(a5)
   133a0:	0789                	addi	a5,a5,2
   133a2:	22071463          	bnez	a4,135ca <ediv+0x288>
   133a6:	fed79be3          	bne	a5,a3,1339c <ediv+0x5a>
   133aa:	6a71                	lui	s4,0x1c
   133ac:	5d8a0593          	addi	a1,s4,1496 # 1c5d8 <ezero>
   133b0:	8526                	mv	a0,s1
   133b2:	9b9ff0ef          	jal	ra,12d6a <ecmp>
   133b6:	22050563          	beqz	a0,135e0 <ediv+0x29e>
   133ba:	0124d603          	lhu	a2,18(s1)
   133be:	0129d703          	lhu	a4,18(s3)
   133c2:	67a1                	lui	a5,0x8
   133c4:	17fd                	addi	a5,a5,-1
   133c6:	00f67533          	and	a0,a2,a5
   133ca:	00f775b3          	and	a1,a4,a5
   133ce:	06f51a63          	bne	a0,a5,13442 <ediv+0x100>
   133d2:	01248813          	addi	a6,s1,18
   133d6:	87a6                	mv	a5,s1
   133d8:	0007d683          	lhu	a3,0(a5) # 8000 <register_fini-0x80b0>
   133dc:	0789                	addi	a5,a5,2
   133de:	e2a5                	bnez	a3,1343e <ediv+0xfc>
   133e0:	ff079ce3          	bne	a5,a6,133d8 <ediv+0x96>
   133e4:	67a1                	lui	a5,0x8
   133e6:	17fd                	addi	a5,a5,-1
   133e8:	20f59663          	bne	a1,a5,135f4 <ediv+0x2b2>
   133ec:	01298693          	addi	a3,s3,18
   133f0:	87ce                	mv	a5,s3
   133f2:	0007d583          	lhu	a1,0(a5) # 8000 <register_fini-0x80b0>
   133f6:	0789                	addi	a5,a5,2
   133f8:	36059163          	bnez	a1,1375a <ediv+0x418>
   133fc:	fed79be3          	bne	a5,a3,133f2 <ediv+0xb0>
   13400:	01040713          	addi	a4,s0,16
   13404:	87a2                	mv	a5,s0
   13406:	0789                	addi	a5,a5,2
   13408:	fe079f23          	sh	zero,-2(a5)
   1340c:	fee79de3          	bne	a5,a4,13406 <ediv+0xc4>
   13410:	77f1                	lui	a5,0xffffc
   13412:	00f41823          	sh	a5,16(s0)
   13416:	77e1                	lui	a5,0xffff8
   13418:	fff7c793          	not	a5,a5
   1341c:	00f41923          	sh	a5,18(s0)
   13420:	60ee                	ld	ra,216(sp)
   13422:	644e                	ld	s0,208(sp)
   13424:	64ae                	ld	s1,200(sp)
   13426:	690e                	ld	s2,192(sp)
   13428:	79ea                	ld	s3,184(sp)
   1342a:	7a4a                	ld	s4,176(sp)
   1342c:	7aaa                	ld	s5,168(sp)
   1342e:	7b0a                	ld	s6,160(sp)
   13430:	6bea                	ld	s7,152(sp)
   13432:	6c4a                	ld	s8,144(sp)
   13434:	6caa                	ld	s9,136(sp)
   13436:	6d0a                	ld	s10,128(sp)
   13438:	7de6                	ld	s11,120(sp)
   1343a:	612d                	addi	sp,sp,224
   1343c:	8082                	ret
   1343e:	67a1                	lui	a5,0x8
   13440:	17fd                	addi	a5,a5,-1
   13442:	1cf58163          	beq	a1,a5,13604 <ediv+0x2c2>
   13446:	8526                	mv	a0,s1
   13448:	080c                	addi	a1,sp,16
   1344a:	88bff0ef          	jal	ra,12cd4 <emovi>
   1344e:	180c                	addi	a1,sp,48
   13450:	854e                	mv	a0,s3
   13452:	883ff0ef          	jal	ra,12cd4 <emovi>
   13456:	03215a83          	lhu	s5,50(sp)
   1345a:	01215483          	lhu	s1,18(sp)
   1345e:	200a8963          	beqz	s5,13670 <ediv+0x32e>
   13462:	e456                	sd	s5,8(sp)
   13464:	8726                	mv	a4,s1
   13466:	e026                	sd	s1,0(sp)
   13468:	085c                	addi	a5,sp,20
   1346a:	1034                	addi	a3,sp,40
   1346c:	ef09                	bnez	a4,13486 <ediv+0x144>
   1346e:	2af68e63          	beq	a3,a5,1372a <ediv+0x3e8>
   13472:	0007d703          	lhu	a4,0(a5) # 8000 <register_fini-0x80b0>
   13476:	0789                	addi	a5,a5,2
   13478:	db7d                	beqz	a4,1346e <ediv+0x12c>
   1347a:	0808                	addi	a0,sp,16
   1347c:	dfcff0ef          	jal	ra,12a78 <enormlz>
   13480:	40a487b3          	sub	a5,s1,a0
   13484:	e03e                	sd	a5,0(sp)
   13486:	5742                	lw	a4,48(sp)
   13488:	03890a93          	addi	s5,s2,56
   1348c:	87d6                	mv	a5,s5
   1348e:	02e92a23          	sw	a4,52(s2)
   13492:	04e90493          	addi	s1,s2,78
   13496:	0789                	addi	a5,a5,2
   13498:	fe079f23          	sh	zero,-2(a5)
   1349c:	fef49de3          	bne	s1,a5,13496 <ediv+0x154>
   134a0:	1808                	addi	a0,sp,48
   134a2:	c46ff0ef          	jal	ra,128e8 <eshdn1>
   134a6:	01615b03          	lhu	s6,22(sp)
   134aa:	69c1                	lui	s3,0x10
   134ac:	04810c13          	addi	s8,sp,72
   134b0:	010b1a13          	slli	s4,s6,0x10
   134b4:	416a0a33          	sub	s4,s4,s6
   134b8:	03210c93          	addi	s9,sp,50
   134bc:	19fd                	addi	s3,s3,-1
   134be:	06a10d13          	addi	s10,sp,106
   134c2:	05210d93          	addi	s11,sp,82
   134c6:	03415783          	lhu	a5,52(sp)
   134ca:	03615703          	lhu	a4,54(sp)
   134ce:	8bce                	mv	s7,s3
   134d0:	07c2                	slli	a5,a5,0x10
   134d2:	97ba                	add	a5,a5,a4
   134d4:	00fa6863          	bltu	s4,a5,134e4 <ediv+0x1a2>
   134d8:	0367d7b3          	divu	a5,a5,s6
   134dc:	03079b93          	slli	s7,a5,0x30
   134e0:	030bdb93          	srli	s7,s7,0x30
   134e4:	0890                	addi	a2,sp,80
   134e6:	080c                	addi	a1,sp,16
   134e8:	855e                	mv	a0,s7
   134ea:	c9aff0ef          	jal	ra,12984 <m16m>
   134ee:	1858                	addi	a4,sp,52
   134f0:	08dc                	addi	a5,sp,84
   134f2:	0007d603          	lhu	a2,0(a5)
   134f6:	00075683          	lhu	a3,0(a4) # ffffffffffff8000 <__BSS_END__+0xfffffffffffd8c80>
   134fa:	0789                	addi	a5,a5,2
   134fc:	0709                	addi	a4,a4,2
   134fe:	18d61b63          	bne	a2,a3,13694 <ediv+0x352>
   13502:	ffa798e3          	bne	a5,s10,134f2 <ediv+0x1b0>
   13506:	4781                	li	a5,0
   13508:	10b4                	addi	a3,sp,104
   1350a:	8662                	mv	a2,s8
   1350c:	00065703          	lhu	a4,0(a2)
   13510:	0006d583          	lhu	a1,0(a3)
   13514:	1679                	addi	a2,a2,-2
   13516:	8f1d                	sub	a4,a4,a5
   13518:	8f0d                	sub	a4,a4,a1
   1351a:	01075793          	srli	a5,a4,0x10
   1351e:	00e61123          	sh	a4,2(a2)
   13522:	8b85                	andi	a5,a5,1
   13524:	16f9                	addi	a3,a3,-2
   13526:	ff9613e3          	bne	a2,s9,1350c <ediv+0x1ca>
   1352a:	017a9023          	sh	s7,0(s5)
   1352e:	185c                	addi	a5,sp,52
   13530:	0027d703          	lhu	a4,2(a5)
   13534:	0789                	addi	a5,a5,2
   13536:	fee79f23          	sh	a4,-2(a5)
   1353a:	ff879be3          	bne	a5,s8,13530 <ediv+0x1ee>
   1353e:	04011423          	sh	zero,72(sp)
   13542:	0a89                	addi	s5,s5,2
   13544:	f95491e3          	bne	s1,s5,134c6 <ediv+0x184>
   13548:	4701                	li	a4,0
   1354a:	185c                	addi	a5,sp,52
   1354c:	04a10613          	addi	a2,sp,74
   13550:	0007d683          	lhu	a3,0(a5)
   13554:	0789                	addi	a5,a5,2
   13556:	8f55                	or	a4,a4,a3
   13558:	fec79ce3          	bne	a5,a2,13550 <ediv+0x20e>
   1355c:	2701                	sext.w	a4,a4
   1355e:	00e035b3          	snez	a1,a4
   13562:	181c                	addi	a5,sp,48
   13564:	03490713          	addi	a4,s2,52
   13568:	00075683          	lhu	a3,0(a4)
   1356c:	0789                	addi	a5,a5,2
   1356e:	0709                	addi	a4,a4,2
   13570:	fed79f23          	sh	a3,-2(a5)
   13574:	fef61ae3          	bne	a2,a5,13568 <ediv+0x226>
   13578:	67a2                	ld	a5,8(sp)
   1357a:	6702                	ld	a4,0(sp)
   1357c:	6691                	lui	a3,0x4
   1357e:	16fd                	addi	a3,a3,-1
   13580:	40e78ab3          	sub	s5,a5,a4
   13584:	1808                	addi	a0,sp,48
   13586:	87ca                	mv	a5,s2
   13588:	04000713          	li	a4,64
   1358c:	96d6                	add	a3,a3,s5
   1358e:	4601                	li	a2,0
   13590:	8bfff0ef          	jal	ra,12e4e <emdnorm>
   13594:	03015703          	lhu	a4,48(sp)
   13598:	01015783          	lhu	a5,16(sp)
   1359c:	85a2                	mv	a1,s0
   1359e:	1808                	addi	a0,sp,48
   135a0:	8f99                	sub	a5,a5,a4
   135a2:	00f037b3          	snez	a5,a5
   135a6:	40f007bb          	negw	a5,a5
   135aa:	02f11823          	sh	a5,48(sp)
   135ae:	c3eff0ef          	jal	ra,129ec <emovo.constprop.0>
   135b2:	b5bd                	j	13420 <ediv+0xde>
   135b4:	01448713          	addi	a4,s1,20
   135b8:	0004d783          	lhu	a5,0(s1)
   135bc:	0489                	addi	s1,s1,2
   135be:	0409                	addi	s0,s0,2
   135c0:	fef41f23          	sh	a5,-2(s0)
   135c4:	fee49ae3          	bne	s1,a4,135b8 <ediv+0x276>
   135c8:	bda1                	j	13420 <ediv+0xde>
   135ca:	01440713          	addi	a4,s0,20
   135ce:	0009d783          	lhu	a5,0(s3) # 10000 <register_fini-0xb0>
   135d2:	0409                	addi	s0,s0,2
   135d4:	0989                	addi	s3,s3,2
   135d6:	fef41f23          	sh	a5,-2(s0)
   135da:	fee41ae3          	bne	s0,a4,135ce <ediv+0x28c>
   135de:	b589                	j	13420 <ediv+0xde>
   135e0:	5d8a0593          	addi	a1,s4,1496
   135e4:	854e                	mv	a0,s3
   135e6:	f84ff0ef          	jal	ra,12d6a <ecmp>
   135ea:	dc0518e3          	bnez	a0,133ba <ediv+0x78>
   135ee:	bd09                	j	13400 <ediv+0xbe>
   135f0:	e4080be3          	beqz	a6,13446 <ediv+0x104>
   135f4:	01440793          	addi	a5,s0,20
   135f8:	0409                	addi	s0,s0,2
   135fa:	fe041f23          	sh	zero,-2(s0)
   135fe:	fef41de3          	bne	s0,a5,135f8 <ediv+0x2b6>
   13602:	bd39                	j	13420 <ediv+0xde>
   13604:	4801                	li	a6,0
   13606:	01298693          	addi	a3,s3,18
   1360a:	87ce                	mv	a5,s3
   1360c:	0007d583          	lhu	a1,0(a5)
   13610:	0789                	addi	a5,a5,2
   13612:	fdf9                	bnez	a1,135f0 <ediv+0x2ae>
   13614:	fed79ce3          	bne	a5,a3,1360c <ediv+0x2ca>
   13618:	67a1                	lui	a5,0x8
   1361a:	17fd                	addi	a5,a5,-1
   1361c:	04f50163          	beq	a0,a5,1365e <ediv+0x31c>
   13620:	823d                	srli	a2,a2,0xf
   13622:	0009d783          	lhu	a5,0(s3)
   13626:	0989                	addi	s3,s3,2
   13628:	12079563          	bnez	a5,13752 <ediv+0x410>
   1362c:	fed99be3          	bne	s3,a3,13622 <ediv+0x2e0>
   13630:	00f75793          	srli	a5,a4,0xf
   13634:	8fb1                	xor	a5,a5,a2
   13636:	00f7979b          	slliw	a5,a5,0xf
   1363a:	00f41923          	sh	a5,18(s0)
   1363e:	01240713          	addi	a4,s0,18
   13642:	87a2                	mv	a5,s0
   13644:	0789                	addi	a5,a5,2
   13646:	fe079f23          	sh	zero,-2(a5) # 7ffe <register_fini-0x80b2>
   1364a:	fef71de3          	bne	a4,a5,13644 <ediv+0x302>
   1364e:	01245783          	lhu	a5,18(s0)
   13652:	6721                	lui	a4,0x8
   13654:	177d                	addi	a4,a4,-1
   13656:	8fd9                	or	a5,a5,a4
   13658:	00f41923          	sh	a5,18(s0)
   1365c:	b3d1                	j	13420 <ediv+0xde>
   1365e:	01248593          	addi	a1,s1,18
   13662:	0004d783          	lhu	a5,0(s1)
   13666:	0489                	addi	s1,s1,2
   13668:	e7fd                	bnez	a5,13756 <ediv+0x414>
   1366a:	feb49ce3          	bne	s1,a1,13662 <ediv+0x320>
   1366e:	bf4d                	j	13620 <ediv+0x2de>
   13670:	185c                	addi	a5,sp,52
   13672:	04810c13          	addi	s8,sp,72
   13676:	0afc0263          	beq	s8,a5,1371a <ediv+0x3d8>
   1367a:	0007d703          	lhu	a4,0(a5)
   1367e:	0789                	addi	a5,a5,2
   13680:	db7d                	beqz	a4,13676 <ediv+0x334>
   13682:	1808                	addi	a0,sp,48
   13684:	bf4ff0ef          	jal	ra,12a78 <enormlz>
   13688:	40a007b3          	neg	a5,a0
   1368c:	01215703          	lhu	a4,18(sp)
   13690:	e43e                	sd	a5,8(sp)
   13692:	bbd1                	j	13466 <ediv+0x124>
   13694:	e6c6f9e3          	bgeu	a3,a2,13506 <ediv+0x1c4>
   13698:	fffb879b          	addiw	a5,s7,-1
   1369c:	03079893          	slli	a7,a5,0x30
   136a0:	0308d893          	srli	a7,a7,0x30
   136a4:	4681                	li	a3,0
   136a6:	1030                	addi	a2,sp,40
   136a8:	10b8                	addi	a4,sp,104
   136aa:	00075783          	lhu	a5,0(a4) # 8000 <register_fini-0x80b0>
   136ae:	00065583          	lhu	a1,0(a2)
   136b2:	1779                	addi	a4,a4,-2
   136b4:	8f95                	sub	a5,a5,a3
   136b6:	8f8d                	sub	a5,a5,a1
   136b8:	0107d693          	srli	a3,a5,0x10
   136bc:	00f71123          	sh	a5,2(a4)
   136c0:	8a85                	andi	a3,a3,1
   136c2:	1679                	addi	a2,a2,-2
   136c4:	ffb713e3          	bne	a4,s11,136aa <ediv+0x368>
   136c8:	1858                	addi	a4,sp,52
   136ca:	08dc                	addi	a5,sp,84
   136cc:	0007d603          	lhu	a2,0(a5)
   136d0:	00075683          	lhu	a3,0(a4)
   136d4:	0789                	addi	a5,a5,2
   136d6:	0709                	addi	a4,a4,2
   136d8:	00d61663          	bne	a2,a3,136e4 <ediv+0x3a2>
   136dc:	ffa798e3          	bne	a5,s10,136cc <ediv+0x38a>
   136e0:	8bc6                	mv	s7,a7
   136e2:	b515                	j	13506 <ediv+0x1c4>
   136e4:	fec6fee3          	bgeu	a3,a2,136e0 <ediv+0x39e>
   136e8:	ffeb851b          	addiw	a0,s7,-2
   136ec:	03051b93          	slli	s7,a0,0x30
   136f0:	030bdb93          	srli	s7,s7,0x30
   136f4:	4681                	li	a3,0
   136f6:	1030                	addi	a2,sp,40
   136f8:	10b8                	addi	a4,sp,104
   136fa:	00075783          	lhu	a5,0(a4)
   136fe:	00065583          	lhu	a1,0(a2)
   13702:	1779                	addi	a4,a4,-2
   13704:	8f95                	sub	a5,a5,a3
   13706:	8f8d                	sub	a5,a5,a1
   13708:	0107d693          	srli	a3,a5,0x10
   1370c:	00f71123          	sh	a5,2(a4)
   13710:	8a85                	andi	a3,a3,1
   13712:	1679                	addi	a2,a2,-2
   13714:	ffb713e3          	bne	a4,s11,136fa <ediv+0x3b8>
   13718:	b3fd                	j	13506 <ediv+0x1c4>
   1371a:	01440793          	addi	a5,s0,20
   1371e:	0409                	addi	s0,s0,2
   13720:	fe041f23          	sh	zero,-2(s0)
   13724:	fef41de3          	bne	s0,a5,1371e <ediv+0x3dc>
   13728:	b9e5                	j	13420 <ediv+0xde>
   1372a:	01015683          	lhu	a3,16(sp)
   1372e:	03015603          	lhu	a2,48(sp)
   13732:	01240713          	addi	a4,s0,18
   13736:	87a2                	mv	a5,s0
   13738:	8e91                	sub	a3,a3,a2
   1373a:	00d036b3          	snez	a3,a3
   1373e:	00f6969b          	slliw	a3,a3,0xf
   13742:	00d41923          	sh	a3,18(s0)
   13746:	0789                	addi	a5,a5,2
   13748:	fe079f23          	sh	zero,-2(a5)
   1374c:	fef71de3          	bne	a4,a5,13746 <ediv+0x404>
   13750:	bdfd                	j	1364e <ediv+0x30c>
   13752:	4781                	li	a5,0
   13754:	b5c5                	j	13634 <ediv+0x2f2>
   13756:	4601                	li	a2,0
   13758:	b5e9                	j	13622 <ediv+0x2e0>
   1375a:	4805                	li	a6,1
   1375c:	b57d                	j	1360a <ediv+0x2c8>

000000000001375e <emul>:
   1375e:	7131                	addi	sp,sp,-192
   13760:	f526                	sd	s1,168(sp)
   13762:	84aa                	mv	s1,a0
   13764:	01255503          	lhu	a0,18(a0)
   13768:	6721                	lui	a4,0x8
   1376a:	177d                	addi	a4,a4,-1
   1376c:	f922                	sd	s0,176(sp)
   1376e:	f14a                	sd	s2,160(sp)
   13770:	e952                	sd	s4,144(sp)
   13772:	fd06                	sd	ra,184(sp)
   13774:	ed4e                	sd	s3,152(sp)
   13776:	e556                	sd	s5,136(sp)
   13778:	e15a                	sd	s6,128(sp)
   1377a:	fcde                	sd	s7,120(sp)
   1377c:	f8e2                	sd	s8,112(sp)
   1377e:	f4e6                	sd	s9,104(sp)
   13780:	00e57833          	and	a6,a0,a4
   13784:	892e                	mv	s2,a1
   13786:	8432                	mv	s0,a2
   13788:	8a36                	mv	s4,a3
   1378a:	00e81b63          	bne	a6,a4,137a0 <emul+0x42>
   1378e:	01248993          	addi	s3,s1,18
   13792:	8726                	mv	a4,s1
   13794:	00075603          	lhu	a2,0(a4) # 8000 <register_fini-0x80b0>
   13798:	0709                	addi	a4,a4,2
   1379a:	e67d                	bnez	a2,13888 <emul+0x12a>
   1379c:	ff371ce3          	bne	a4,s3,13794 <emul+0x36>
   137a0:	01295603          	lhu	a2,18(s2)
   137a4:	67a1                	lui	a5,0x8
   137a6:	17fd                	addi	a5,a5,-1
   137a8:	00f675b3          	and	a1,a2,a5
   137ac:	06f58c63          	beq	a1,a5,13824 <emul+0xc6>
   137b0:	10f81363          	bne	a6,a5,138b6 <emul+0x158>
   137b4:	01248993          	addi	s3,s1,18
   137b8:	87a6                	mv	a5,s1
   137ba:	0007d703          	lhu	a4,0(a5) # 8000 <register_fini-0x80b0>
   137be:	0789                	addi	a5,a5,2
   137c0:	1c071b63          	bnez	a4,13996 <emul+0x238>
   137c4:	fef99be3          	bne	s3,a5,137ba <emul+0x5c>
   137c8:	65f1                	lui	a1,0x1c
   137ca:	5d858593          	addi	a1,a1,1496 # 1c5d8 <ezero>
   137ce:	854a                	mv	a0,s2
   137d0:	d9aff0ef          	jal	ra,12d6a <ecmp>
   137d4:	1a050063          	beqz	a0,13974 <emul+0x216>
   137d8:	01295603          	lhu	a2,18(s2)
   137dc:	67a1                	lui	a5,0x8
   137de:	17fd                	addi	a5,a5,-1
   137e0:	00f675b3          	and	a1,a2,a5
   137e4:	1af58d63          	beq	a1,a5,1399e <emul+0x240>
   137e8:	0124d503          	lhu	a0,18(s1)
   137ec:	00f57733          	and	a4,a0,a5
   137f0:	0cf71363          	bne	a4,a5,138b6 <emul+0x158>
   137f4:	87a6                	mv	a5,s1
   137f6:	0007d703          	lhu	a4,0(a5) # 8000 <register_fini-0x80b0>
   137fa:	0789                	addi	a5,a5,2
   137fc:	0e071a63          	bnez	a4,138f0 <emul+0x192>
   13800:	fef99be3          	bne	s3,a5,137f6 <emul+0x98>
   13804:	0004d783          	lhu	a5,0(s1)
   13808:	0489                	addi	s1,s1,2
   1380a:	28079e63          	bnez	a5,13aa6 <emul+0x348>
   1380e:	ff349be3          	bne	s1,s3,13804 <emul+0xa6>
   13812:	00f55713          	srli	a4,a0,0xf
   13816:	67a1                	lui	a5,0x8
   13818:	17fd                	addi	a5,a5,-1
   1381a:	10f59b63          	bne	a1,a5,13930 <emul+0x1d2>
   1381e:	01290693          	addi	a3,s2,18
   13822:	a201                	j	13922 <emul+0x1c4>
   13824:	01290693          	addi	a3,s2,18
   13828:	874a                	mv	a4,s2
   1382a:	00075783          	lhu	a5,0(a4)
   1382e:	0709                	addi	a4,a4,2
   13830:	12079763          	bnez	a5,1395e <emul+0x200>
   13834:	fee69be3          	bne	a3,a4,1382a <emul+0xcc>
   13838:	67a1                	lui	a5,0x8
   1383a:	17fd                	addi	a5,a5,-1
   1383c:	f6f80ce3          	beq	a6,a5,137b4 <emul+0x56>
   13840:	87ca                	mv	a5,s2
   13842:	0007d703          	lhu	a4,0(a5) # 8000 <register_fini-0x80b0>
   13846:	0789                	addi	a5,a5,2
   13848:	28071163          	bnez	a4,13aca <emul+0x36c>
   1384c:	fef69be3          	bne	a3,a5,13842 <emul+0xe4>
   13850:	65f1                	lui	a1,0x1c
   13852:	5d858593          	addi	a1,a1,1496 # 1c5d8 <ezero>
   13856:	8526                	mv	a0,s1
   13858:	d12ff0ef          	jal	ra,12d6a <ecmp>
   1385c:	10050c63          	beqz	a0,13974 <emul+0x216>
   13860:	0124d503          	lhu	a0,18(s1)
   13864:	01295603          	lhu	a2,18(s2)
   13868:	67a1                	lui	a5,0x8
   1386a:	17fd                	addi	a5,a5,-1
   1386c:	00f576b3          	and	a3,a0,a5
   13870:	00f67733          	and	a4,a2,a5
   13874:	8836                	mv	a6,a3
   13876:	0007059b          	sext.w	a1,a4
   1387a:	06f69d63          	bne	a3,a5,138f4 <emul+0x196>
   1387e:	01248993          	addi	s3,s1,18
   13882:	0007059b          	sext.w	a1,a4
   13886:	b7bd                	j	137f4 <emul+0x96>
   13888:	01440713          	addi	a4,s0,20
   1388c:	0004d783          	lhu	a5,0(s1)
   13890:	0409                	addi	s0,s0,2
   13892:	0489                	addi	s1,s1,2
   13894:	fef41f23          	sh	a5,-2(s0)
   13898:	fee41ae3          	bne	s0,a4,1388c <emul+0x12e>
   1389c:	70ea                	ld	ra,184(sp)
   1389e:	744a                	ld	s0,176(sp)
   138a0:	74aa                	ld	s1,168(sp)
   138a2:	790a                	ld	s2,160(sp)
   138a4:	69ea                	ld	s3,152(sp)
   138a6:	6a4a                	ld	s4,144(sp)
   138a8:	6aaa                	ld	s5,136(sp)
   138aa:	6b0a                	ld	s6,128(sp)
   138ac:	7be6                	ld	s7,120(sp)
   138ae:	7c46                	ld	s8,112(sp)
   138b0:	7ca6                	ld	s9,104(sp)
   138b2:	6129                	addi	sp,sp,192
   138b4:	8082                	ret
   138b6:	8526                	mv	a0,s1
   138b8:	858a                	mv	a1,sp
   138ba:	c1aff0ef          	jal	ra,12cd4 <emovi>
   138be:	100c                	addi	a1,sp,32
   138c0:	854a                	mv	a0,s2
   138c2:	c12ff0ef          	jal	ra,12cd4 <emovi>
   138c6:	00215483          	lhu	s1,2(sp)
   138ca:	02215983          	lhu	s3,34(sp)
   138ce:	e8f9                	bnez	s1,139a4 <emul+0x246>
   138d0:	005c                	addi	a5,sp,4
   138d2:	0834                	addi	a3,sp,24
   138d4:	1cf68b63          	beq	a3,a5,13aaa <emul+0x34c>
   138d8:	0007d703          	lhu	a4,0(a5) # 8000 <register_fini-0x80b0>
   138dc:	0789                	addi	a5,a5,2
   138de:	db7d                	beqz	a4,138d4 <emul+0x176>
   138e0:	850a                	mv	a0,sp
   138e2:	996ff0ef          	jal	ra,12a78 <enormlz>
   138e6:	02215703          	lhu	a4,34(sp)
   138ea:	40a004b3          	neg	s1,a0
   138ee:	a865                	j	139a6 <emul+0x248>
   138f0:	6821                	lui	a6,0x8
   138f2:	187d                	addi	a6,a6,-1
   138f4:	67a1                	lui	a5,0x8
   138f6:	17fd                	addi	a5,a5,-1
   138f8:	faf59fe3          	bne	a1,a5,138b6 <emul+0x158>
   138fc:	01290693          	addi	a3,s2,18
   13900:	87ca                	mv	a5,s2
   13902:	0007d703          	lhu	a4,0(a5) # 8000 <register_fini-0x80b0>
   13906:	0789                	addi	a5,a5,2
   13908:	f75d                	bnez	a4,138b6 <emul+0x158>
   1390a:	fed79ce3          	bne	a5,a3,13902 <emul+0x1a4>
   1390e:	67a1                	lui	a5,0x8
   13910:	2801                	sext.w	a6,a6
   13912:	17fd                	addi	a5,a5,-1
   13914:	00f55713          	srli	a4,a0,0xf
   13918:	01248993          	addi	s3,s1,18
   1391c:	85c2                	mv	a1,a6
   1391e:	eef803e3          	beq	a6,a5,13804 <emul+0xa6>
   13922:	00095783          	lhu	a5,0(s2)
   13926:	0909                	addi	s2,s2,2
   13928:	16079d63          	bnez	a5,13aa2 <emul+0x344>
   1392c:	fed91be3          	bne	s2,a3,13922 <emul+0x1c4>
   13930:	00f65793          	srli	a5,a2,0xf
   13934:	8fb9                	xor	a5,a5,a4
   13936:	00f7979b          	slliw	a5,a5,0xf
   1393a:	00f41923          	sh	a5,18(s0)
   1393e:	01240713          	addi	a4,s0,18
   13942:	87a2                	mv	a5,s0
   13944:	0789                	addi	a5,a5,2
   13946:	fe079f23          	sh	zero,-2(a5) # 7ffe <register_fini-0x80b2>
   1394a:	fee79de3          	bne	a5,a4,13944 <emul+0x1e6>
   1394e:	01245783          	lhu	a5,18(s0)
   13952:	6721                	lui	a4,0x8
   13954:	177d                	addi	a4,a4,-1
   13956:	8fd9                	or	a5,a5,a4
   13958:	00f41923          	sh	a5,18(s0)
   1395c:	b781                	j	1389c <emul+0x13e>
   1395e:	01490713          	addi	a4,s2,20
   13962:	00095783          	lhu	a5,0(s2)
   13966:	0909                	addi	s2,s2,2
   13968:	0409                	addi	s0,s0,2
   1396a:	fef41f23          	sh	a5,-2(s0)
   1396e:	fee91ae3          	bne	s2,a4,13962 <emul+0x204>
   13972:	b72d                	j	1389c <emul+0x13e>
   13974:	01040713          	addi	a4,s0,16
   13978:	87a2                	mv	a5,s0
   1397a:	0789                	addi	a5,a5,2
   1397c:	fe079f23          	sh	zero,-2(a5)
   13980:	fee79de3          	bne	a5,a4,1397a <emul+0x21c>
   13984:	77f1                	lui	a5,0xffffc
   13986:	00f41823          	sh	a5,16(s0)
   1398a:	77e1                	lui	a5,0xffff8
   1398c:	fff7c793          	not	a5,a5
   13990:	00f41923          	sh	a5,18(s0)
   13994:	b721                	j	1389c <emul+0x13e>
   13996:	67a1                	lui	a5,0x8
   13998:	17fd                	addi	a5,a5,-1
   1399a:	e4f59de3          	bne	a1,a5,137f4 <emul+0x96>
   1399e:	01290693          	addi	a3,s2,18
   139a2:	bd79                	j	13840 <emul+0xe2>
   139a4:	874e                	mv	a4,s3
   139a6:	894e                	mv	s2,s3
   139a8:	105c                	addi	a5,sp,36
   139aa:	1834                	addi	a3,sp,56
   139ac:	ef11                	bnez	a4,139c8 <emul+0x26a>
   139ae:	10d78663          	beq	a5,a3,13aba <emul+0x35c>
   139b2:	0007d703          	lhu	a4,0(a5) # 8000 <register_fini-0x80b0>
   139b6:	0789                	addi	a5,a5,2
   139b8:	db7d                	beqz	a4,139ae <emul+0x250>
   139ba:	1008                	addi	a0,sp,32
   139bc:	8bcff0ef          	jal	ra,12a78 <enormlz>
   139c0:	02215703          	lhu	a4,34(sp)
   139c4:	40a98933          	sub	s2,s3,a0
   139c8:	02015783          	lhu	a5,32(sp)
   139cc:	038a0993          	addi	s3,s4,56
   139d0:	02ea1b23          	sh	a4,54(s4)
   139d4:	02fa1a23          	sh	a5,52(s4)
   139d8:	04ea0713          	addi	a4,s4,78
   139dc:	87ce                	mv	a5,s3
   139de:	00079023          	sh	zero,0(a5)
   139e2:	0789                	addi	a5,a5,2
   139e4:	fee79de3          	bne	a5,a4,139de <emul+0x280>
   139e8:	04ca0c13          	addi	s8,s4,76
   139ec:	4b81                	li	s7,0
   139ee:	01810a93          	addi	s5,sp,24
   139f2:	00410c93          	addi	s9,sp,4
   139f6:	04210b13          	addi	s6,sp,66
   139fa:	000ad503          	lhu	a0,0(s5)
   139fe:	1af9                	addi	s5,s5,-2
   13a00:	e935                	bnez	a0,13a74 <emul+0x316>
   13a02:	04ca5783          	lhu	a5,76(s4)
   13a06:	8762                	mv	a4,s8
   13a08:	00fbebb3          	or	s7,s7,a5
   13a0c:	ffe75603          	lhu	a2,-2(a4) # 7ffe <register_fini-0x80b2>
   13a10:	1779                	addi	a4,a4,-2
   13a12:	00c71123          	sh	a2,2(a4)
   13a16:	fee99be3          	bne	s3,a4,13a0c <emul+0x2ae>
   13a1a:	020a1c23          	sh	zero,56(s4)
   13a1e:	fd9a9ee3          	bne	s5,s9,139fa <emul+0x29c>
   13a22:	034a0713          	addi	a4,s4,52
   13a26:	101c                	addi	a5,sp,32
   13a28:	03a10613          	addi	a2,sp,58
   13a2c:	00075683          	lhu	a3,0(a4)
   13a30:	0789                	addi	a5,a5,2
   13a32:	0709                	addi	a4,a4,2
   13a34:	fed79f23          	sh	a3,-2(a5)
   13a38:	fec79ae3          	bne	a5,a2,13a2c <emul+0x2ce>
   13a3c:	76f1                	lui	a3,0xffffc
   13a3e:	94ca                	add	s1,s1,s2
   13a40:	0689                	addi	a3,a3,2
   13a42:	85de                	mv	a1,s7
   13a44:	1008                	addi	a0,sp,32
   13a46:	87d2                	mv	a5,s4
   13a48:	04000713          	li	a4,64
   13a4c:	96a6                	add	a3,a3,s1
   13a4e:	4601                	li	a2,0
   13a50:	bfeff0ef          	jal	ra,12e4e <emdnorm>
   13a54:	02015703          	lhu	a4,32(sp)
   13a58:	00015783          	lhu	a5,0(sp)
   13a5c:	85a2                	mv	a1,s0
   13a5e:	1008                	addi	a0,sp,32
   13a60:	8f99                	sub	a5,a5,a4
   13a62:	00f037b3          	snez	a5,a5
   13a66:	40f007bb          	negw	a5,a5
   13a6a:	02f11023          	sh	a5,32(sp)
   13a6e:	f7ffe0ef          	jal	ra,129ec <emovo.constprop.0>
   13a72:	b52d                	j	1389c <emul+0x13e>
   13a74:	0090                	addi	a2,sp,64
   13a76:	100c                	addi	a1,sp,32
   13a78:	f0dfe0ef          	jal	ra,12984 <m16m>
   13a7c:	8562                	mv	a0,s8
   13a7e:	4581                	li	a1,0
   13a80:	08b0                	addi	a2,sp,88
   13a82:	00055783          	lhu	a5,0(a0)
   13a86:	00065703          	lhu	a4,0(a2)
   13a8a:	1579                	addi	a0,a0,-2
   13a8c:	1679                	addi	a2,a2,-2
   13a8e:	973e                	add	a4,a4,a5
   13a90:	972e                	add	a4,a4,a1
   13a92:	01075593          	srli	a1,a4,0x10
   13a96:	00e51123          	sh	a4,2(a0)
   13a9a:	8985                	andi	a1,a1,1
   13a9c:	ff6613e3          	bne	a2,s6,13a82 <emul+0x324>
   13aa0:	b78d                	j	13a02 <emul+0x2a4>
   13aa2:	4781                	li	a5,0
   13aa4:	bd41                	j	13934 <emul+0x1d6>
   13aa6:	4701                	li	a4,0
   13aa8:	b3bd                	j	13816 <emul+0xb8>
   13aaa:	01440793          	addi	a5,s0,20
   13aae:	0409                	addi	s0,s0,2
   13ab0:	fe041f23          	sh	zero,-2(s0)
   13ab4:	fef41de3          	bne	s0,a5,13aae <emul+0x350>
   13ab8:	b3d5                	j	1389c <emul+0x13e>
   13aba:	01440793          	addi	a5,s0,20
   13abe:	0409                	addi	s0,s0,2
   13ac0:	fe041f23          	sh	zero,-2(s0)
   13ac4:	fef41de3          	bne	s0,a5,13abe <emul+0x360>
   13ac8:	bbd1                	j	1389c <emul+0x13e>
   13aca:	0124d503          	lhu	a0,18(s1)
   13ace:	67a1                	lui	a5,0x8
   13ad0:	17fd                	addi	a5,a5,-1
   13ad2:	00f575b3          	and	a1,a0,a5
   13ad6:	01248993          	addi	s3,s1,18
   13ada:	882e                	mv	a6,a1
   13adc:	e2f592e3          	bne	a1,a5,13900 <emul+0x1a2>
   13ae0:	bb11                	j	137f4 <emul+0x96>

0000000000013ae2 <_ldtoa_r>:
   13ae2:	d9010113          	addi	sp,sp,-624
   13ae6:	09100313          	li	t1,145
   13aea:	f4b2                	sd	a2,104(sp)
   13aec:	06053e03          	ld	t3,96(a0)
   13af0:	02031613          	slli	a2,t1,0x20
   13af4:	167d                	addi	a2,a2,-1
   13af6:	f43e                	sd	a5,40(sp)
   13af8:	09000793          	li	a5,144
   13afc:	26813023          	sd	s0,608(sp)
   13b00:	25313423          	sd	s3,584(sp)
   13b04:	26113423          	sd	ra,616(sp)
   13b08:	24913c23          	sd	s1,600(sp)
   13b0c:	25213823          	sd	s2,592(sp)
   13b10:	25413023          	sd	s4,576(sp)
   13b14:	23513c23          	sd	s5,568(sp)
   13b18:	23613823          	sd	s6,560(sp)
   13b1c:	23713423          	sd	s7,552(sp)
   13b20:	23813023          	sd	s8,544(sp)
   13b24:	21913c23          	sd	s9,536(sp)
   13b28:	21a13823          	sd	s10,528(sp)
   13b2c:	21b13423          	sd	s11,520(sp)
   13b30:	f0ae                	sd	a1,96(sp)
   13b32:	fb32                	sd	a2,432(sp)
   13b34:	e436                	sd	a3,8(sp)
   13b36:	ec3a                	sd	a4,24(sp)
   13b38:	f846                	sd	a7,48(sp)
   13b3a:	f03e                	sd	a5,32(sp)
   13b3c:	89aa                	mv	s3,a0
   13b3e:	8442                	mv	s0,a6
   13b40:	020e0263          	beqz	t3,13b64 <_ldtoa_r+0x82>
   13b44:	5538                	lw	a4,104(a0)
   13b46:	4785                	li	a5,1
   13b48:	85f2                	mv	a1,t3
   13b4a:	00e797bb          	sllw	a5,a5,a4
   13b4e:	00fe2623          	sw	a5,12(t3) # 1000c <register_fini-0xa4>
   13b52:	00ee2423          	sw	a4,8(t3)
   13b56:	66a010ef          	jal	ra,151c0 <_Bfree>
   13b5a:	1b412783          	lw	a5,436(sp)
   13b5e:	0609b023          	sd	zero,96(s3)
   13b62:	f03e                	sd	a5,32(sp)
   13b64:	090c                	addi	a1,sp,144
   13b66:	1088                	addi	a0,sp,96
   13b68:	edeff0ef          	jal	ra,13246 <e113toe.isra.0>
   13b6c:	0a215683          	lhu	a3,162(sp)
   13b70:	67a1                	lui	a5,0x8
   13b72:	17fd                	addi	a5,a5,-1
   13b74:	00f6f5b3          	and	a1,a3,a5
   13b78:	00f59c63          	bne	a1,a5,13b90 <_ldtoa_r+0xae>
   13b7c:	091c                	addi	a5,sp,144
   13b7e:	0a210613          	addi	a2,sp,162
   13b82:	0007d703          	lhu	a4,0(a5) # 8000 <register_fini-0x80b0>
   13b86:	0789                	addi	a5,a5,2
   13b88:	0c0715e3          	bnez	a4,14452 <_ldtoa_r+0x970>
   13b8c:	fec79be3          	bne	a5,a2,13b82 <_ldtoa_r+0xa0>
   13b90:	82bd                	srli	a3,a3,0xf
   13b92:	6722                	ld	a4,8(sp)
   13b94:	c014                	sw	a3,0(s0)
   13b96:	478d                	li	a5,3
   13b98:	66f70c63          	beq	a4,a5,14210 <_ldtoa_r+0x72e>
   13b9c:	47d1                	li	a5,20
   13b9e:	e83e                	sd	a5,16(sp)
   13ba0:	0a071ce3          	bnez	a4,14458 <_ldtoa_r+0x976>
   13ba4:	67a1                	lui	a5,0x8
   13ba6:	17fd                	addi	a5,a5,-1
   13ba8:	00f59c63          	bne	a1,a5,13bc0 <_ldtoa_r+0xde>
   13bac:	091c                	addi	a5,sp,144
   13bae:	0a210693          	addi	a3,sp,162
   13bb2:	0007d703          	lhu	a4,0(a5) # 8000 <register_fini-0x80b0>
   13bb6:	0789                	addi	a5,a5,2
   13bb8:	6a071d63          	bnez	a4,14272 <_ldtoa_r+0x790>
   13bbc:	fed79be3          	bne	a5,a3,13bb2 <_ldtoa_r+0xd0>
   13bc0:	09000793          	li	a5,144
   13bc4:	1af12a23          	sw	a5,436(sp)
   13bc8:	1918                	addi	a4,sp,176
   13bca:	091c                	addi	a5,sp,144
   13bcc:	1150                	addi	a2,sp,164
   13bce:	0007d683          	lhu	a3,0(a5)
   13bd2:	0789                	addi	a5,a5,2
   13bd4:	0709                	addi	a4,a4,2
   13bd6:	fed71f23          	sh	a3,-2(a4)
   13bda:	fec79ae3          	bne	a5,a2,13bce <_ldtoa_r+0xec>
   13bde:	0c215603          	lhu	a2,194(sp)
   13be2:	4c01                	li	s8,0
   13be4:	00f65793          	srli	a5,a2,0xf
   13be8:	3e079d63          	bnez	a5,13fe2 <_ldtoa_r+0x500>
   13bec:	6af1                	lui	s5,0x1c
   13bee:	5d8a8b93          	addi	s7,s5,1496 # 1c5d8 <ezero>
   13bf2:	018b8b13          	addi	s6,s7,24
   13bf6:	4681                	li	a3,0
   13bf8:	099c                	addi	a5,sp,208
   13bfa:	875a                	mv	a4,s6
   13bfc:	0e410d93          	addi	s11,sp,228
   13c00:	a019                	j	13c06 <_ldtoa_r+0x124>
   13c02:	00075683          	lhu	a3,0(a4)
   13c06:	0789                	addi	a5,a5,2
   13c08:	fed79f23          	sh	a3,-2(a5)
   13c0c:	0709                	addi	a4,a4,2
   13c0e:	ffb79ae3          	bne	a5,s11,13c02 <_ldtoa_r+0x120>
   13c12:	0e060963          	beqz	a2,13d04 <_ldtoa_r+0x222>
   13c16:	67a1                	lui	a5,0x8
   13c18:	17fd                	addi	a5,a5,-1
   13c1a:	18f609e3          	beq	a2,a5,145ac <_ldtoa_r+0xaca>
   13c1e:	0c011783          	lh	a5,192(sp)
   13c22:	1e07d7e3          	bgez	a5,14610 <_ldtoa_r+0xb2e>
   13c26:	190c                	addi	a1,sp,176
   13c28:	855a                	mv	a0,s6
   13c2a:	940ff0ef          	jal	ra,12d6a <ecmp>
   13c2e:	0e050563          	beqz	a0,13d18 <_ldtoa_r+0x236>
   13c32:	64054c63          	bltz	a0,1428a <_ldtoa_r+0x7a8>
   13c36:	0c215783          	lhu	a5,194(sp)
   13c3a:	240798e3          	bnez	a5,1468a <_ldtoa_r+0xba8>
   13c3e:	0c011783          	lh	a5,192(sp)
   13c42:	4481                	li	s1,0
   13c44:	1b010913          	addi	s2,sp,432
   13c48:	0007cf63          	bltz	a5,13c66 <_ldtoa_r+0x184>
   13c4c:	120b8413          	addi	s0,s7,288
   13c50:	1910                	addi	a2,sp,176
   13c52:	86ca                	mv	a3,s2
   13c54:	85b2                	mv	a1,a2
   13c56:	8522                	mv	a0,s0
   13c58:	b07ff0ef          	jal	ra,1375e <emul>
   13c5c:	0c011783          	lh	a5,192(sp)
   13c60:	34fd                	addiw	s1,s1,-1
   13c62:	fe07d7e3          	bgez	a5,13c50 <_ldtoa_r+0x16e>
